(dp0
V69526930
p1
(F40.69056179660952
F-73.98373322506008
tp2
sV10461570
p3
(F40.682829057120216
F-73.94261666366378
tp4
sV22093318
p5
(F41.900049261462854
F-87.62354459252053
tp6
sV88594682
p7
(F41.86217173047941
F-87.67034595950935
tp8
sV72024584
p9
(F41.84459067940781
F-87.64429985279381
tp10
sV91018731
p11
(F40.706469644156925
F-73.91331188779803
tp12
sV20749675
p13
(F41.87730905053349
F-87.6605107361126
tp14
sV46164735
p15
(F28.652406494168325
F77.16353625555736
tp16
sV28018650
p17
(F28.57659546280014
F77.18752159654495
tp18
sV69487736
p19
(F41.865404180025116
F-87.65133876069841
tp20
sV83569104
p21
(F40.712309885885404
F-73.94431594102142
tp22
sV62397612
p23
(F39.92308902210399
F116.44090696766473
tp24
sV85423145
p25
(F28.66303783731338
F77.24691421055391
tp26
sV90357893
p27
(F41.92211106666165
F-87.66019771758131
tp28
sV75790165
p29
(F48.84281766495531
F2.3549362432392114
tp30
sV50369928
p31
(F41.89312502243994
F-87.6755553947724
tp32
sV86990462
p33
(F40.71713370769531
F-73.96502107198697
tp34
sV92995949
p35
(F48.8206386235094
F2.367338895777099
tp36
sV68329914
p37
(F40.80873351819724
F-73.9640031476374
tp38
sV02932576
p39
(F48.864860562080096
F2.3182645589725337
tp40
sV36943999
p41
(F28.628700908779035
F77.20568041913619
tp42
sV97085645
p43
(F40.71224551598576
F-73.94742934572201
tp44
sV61015371
p45
(F39.924528129341155
F116.3667120658061
tp46
sV31281522
p47
(F41.8889197688656
F-87.61535744494911
tp48
sV71090559
p49
(F40.802705755338756
F-73.94624792668326
tp50
sV81388462
p51
(F40.678932707887846
F-73.9682692820536
tp52
sV19641416
p53
(F41.88864072368818
F-87.67250124511128
tp54
sV77395788
p55
(F40.789665264664045
F-73.9768356524229
tp56
sV28885450
p57
(F39.933153185660565
F116.37614442714313
tp58
sV46843616
p59
(F40.67632502913888
F-73.91104041508774
tp60
sV47727212
p61
(F48.82603010942485
F2.341402232477142
tp62
sV76615764
p63
(F28.58511371700834
F77.23481682034931
tp64
sV02700946
p65
(F41.83266718629424
F-87.63570145969435
tp66
sV14576898
p67
(F41.901395569872825
F-87.66238095935852
tp68
sV14151927
p69
(F39.923773780902344
F116.45155826293706
tp70
sV58833339
p71
(F41.8967052660088
F-87.6128888033945
tp72
sV47741874
p73
(F39.89683828689732
F116.3830176621003
tp74
sV02643618
p75
(F40.758232995802665
F-74.02362061997196
tp76
sV52758324
p77
(F41.927304498790335
F-87.68866255541084
tp78
sV03277973
p79
(F40.66943996996606
F-73.98586651809269
tp80
sV85415232
p81
(F41.90964205506377
F-87.62925293458987
tp82
sV00430494
p83
(F40.7546101204246
F-73.98429176004139
tp84
sV66473664
p85
(F28.57354002911733
F77.24574326559366
tp86
sV11272045
p87
(F28.60621340751589
F77.19027769444472
tp88
sV92195110
p89
(F39.92481982777668
F116.43914002054093
tp90
sV71314372
p91
(F41.907240214803586
F-87.63250324425972
tp92
sV60892904
p93
(F40.80686813178038
F-74.0283222880468
tp94
sV48151245
p95
(F48.86963238217851
F2.3156881894830494
tp96
sV27664223
p97
(F40.63600968944322
F-73.99052754954963
tp98
sV91339195
p99
(F41.88747557392929
F-87.60323654239869
tp100
sV85538665
p101
(F48.85835359889276
F2.396462125307252
tp102
sV50565108
p103
(F39.885103992771604
F116.38484058701661
tp104
sV70922875
p105
(F39.897287696561186
F116.41134582066982
tp106
sV87076516
p107
(F41.89506952822342
F-87.67607011804502
tp108
sV89860977
p109
(F48.89166202448958
F2.4010631298913427
tp110
sV57221366
p111
(F48.85860093638627
F2.3277507754089206
tp112
sV15756565
p113
(F40.807244898820095
F-73.99978052210461
tp114
sV56221862
p115
(F41.907764718525506
F-87.68971088431958
tp116
sV59454625
p117
(F40.65388329866472
F-73.91826853403197
tp118
sV94653458
p119
(F41.86314265386615
F-87.68059216594915
tp120
sV72378724
p121
(F39.925707890008546
F116.45120080596621
tp122
sV86881180
p123
(F28.65813111145253
F77.1991095446753
tp124
sV17835992
p125
(F40.766493964395366
F-74.01412082282435
tp126
sV83384387
p127
(F41.83435390590989
F-87.64600427457468
tp128
sV80925576
p129
(F28.61547748746327
F77.22089871079203
tp130
sV94629835
p131
(F40.76953967953092
F-73.9471210986615
tp132
sV51652135
p133
(F39.937249315120056
F116.42980940809028
tp134
sV68017668
p135
(F39.91926348136511
F116.43939571947932
tp136
sV48610032
p137
(F40.71461728975367
F-73.9256740985201
tp138
sV83061202
p139
(F39.950587798344124
F116.44785909623238
tp140
sV49506877
p141
(F39.91694219293331
F116.40444738146411
tp142
sV55861533
p143
(F40.79275857457882
F-73.96965193398263
tp144
sV38056369
p145
(F41.918749890391894
F-87.66356132637765
tp146
sV27294918
p147
(F48.855459988094374
F2.3439280028103195
tp148
sV97440819
p149
(F40.744145939624644
F-73.9474405611696
tp150
sV78369313
p151
(F40.712012674599606
F-74.00283711881544
tp152
sV72125236
p153
(F48.84969550857485
F2.3338612622599113
tp154
sV07478604
p155
(F41.889451396424505
F-87.6406132945339
tp156
sV39912114
p157
(F39.89479395678856
F116.38071644884444
tp158
sV63672572
p159
(F40.70709318912746
F-73.91631468595152
tp160
sV82802776
p161
(F40.63729739179847
F-73.97625665897242
tp162
sV42644972
p163
(F40.77237502055172
F-74.01340408910137
tp164
sV05419074
p165
(F28.634248841338334
F77.2094480408946
tp166
sV67013104
p167
(F40.63552060947923
F-73.95854779230758
tp168
sV12889082
p169
(F48.86541661231603
F2.331180046323948
tp170
sV92813649
p171
(F40.65027192180601
F-73.96144325496518
tp172
sV33071930
p173
(F48.889154324779966
F2.3967070858382784
tp174
sV52015809
p175
(F39.916701571294595
F116.400466420623
tp176
sV06319021
p177
(F40.76013701328989
F-73.93114037284458
tp178
sV90024450
p179
(F28.607923594516038
F77.1910352188281
tp180
sV80952350
p181
(F40.68989445908881
F-73.93174225608958
tp182
sV72079805
p183
(F40.74152331969986
F-74.01115652554968
tp184
sV90695162
p185
(F40.639553594294036
F-73.95671056160961
tp186
sV53214843
p187
(F28.58861142982194
F77.22267591090223
tp188
sV57130736
p189
(F48.8811778701716
F2.396249298350101
tp190
sV88535852
p191
(F48.86189403051375
F2.305466189068003
tp192
sV66385875
p193
(F28.565002504104896
F77.18038583056958
tp194
sV07177316
p195
(F48.86963701978364
F2.324541375495222
tp196
sV87013078
p197
(F48.84581488582386
F2.3814174585968773
tp198
sV33588759
p199
(F40.718048906075566
F-73.99015806491364
tp200
sV36520787
p201
(F48.89294229325806
F2.353814115664163
tp202
sV80578161
p203
(F39.884889037294805
F116.43081241031108
tp204
sV90014451
p205
(F41.86773073922172
F-87.66985014815518
tp206
sV60408068
p207
(F28.64082766443963
F77.2332855031323
tp208
sV46004314
p209
(F40.679530066198126
F-73.97707521797717
tp210
sV44179076
p211
(F40.629737587192956
F-73.92391395589354
tp212
sV31315883
p213
(F40.71667285958943
F-74.01463735289516
tp214
sV86375504
p215
(F41.91524676800786
F-87.64640056874117
tp216
sV76473715
p217
(F39.91248603800312
F116.44966312581289
tp218
sV08329288
p219
(F40.68744029787859
F-73.9267813028178
tp220
sV32655117
p221
(F48.872271029018854
F2.377123974685885
tp222
sV77645555
p223
(F40.757783052537555
F-74.01046124278133
tp224
sV46662347
p225
(F41.876898404970916
F-87.64895888742113
tp226
sV31116244
p227
(F48.87633777201336
F2.38191524929315
tp228
sV11236429
p229
(F28.618570270550887
F77.161988774132
tp230
sV22314321
p231
(F40.74728895485782
F-73.99529221279923
tp232
sV54033320
p233
(F40.798247638008974
F-74.02148839098511
tp234
sV77222428
p235
(F28.64735978392045
F77.18453419333204
tp236
sV85986756
p237
(F40.757732904311965
F-73.9614270393457
tp238
sV39633446
p239
(F41.86581517841489
F-87.66105581362818
tp240
sV86824958
p241
(F39.92016639137158
F116.40010343180438
tp242
sV27587645
p243
(F40.79183081219913
F-73.94967898502969
tp244
sV75958008
p245
(F41.84852410298589
F-87.68926354199233
tp246
sV02880617
p247
(F41.84624410956675
F-87.68422483394333
tp248
sV40748962
p249
(F28.65455530569007
F77.18843864534679
tp250
sV49029987
p251
(F40.782078792651646
F-74.0083884008844
tp252
sV65888216
p253
(F40.747123696976914
F-73.9357150595468
tp254
sV23614505
p255
(F28.606394687409004
F77.25276777330188
tp256
sV90404634
p257
(F48.80861456668132
F2.335489318514026
tp258
sV16078574
p259
(F40.67587299832166
F-73.94620722299146
tp260
sV21558016
p261
(F48.84746883919
F2.353928226633562
tp262
sV47323223
p263
(F48.88578089087665
F2.395812758702059
tp264
sV00317948
p265
(F41.877567892862785
F-87.62244362506382
tp266
sV03834138
p267
(F48.861743781866906
F2.336513801770968
tp268
sV54982024
p269
(F39.92483889868504
F116.38768260420842
tp270
sV28412465
p271
(F40.793366624896784
F-73.96976578836303
tp272
sV25811827
p273
(F48.88477967841073
F2.3433605839923186
tp274
sV67825233
p275
(F41.919714374877636
F-87.67483244685532
tp276
sV44305444
p277
(F40.71511630042457
F-73.95717516781419
tp278
sV08238955
p279
(F48.844876587523565
F2.369862664696143
tp280
sV62792936
p281
(F40.724824244712494
F-73.96889614487174
tp282
sV02778433
p283
(F48.81577248442846
F2.336733899082626
tp284
sV90299131
p285
(F40.719245644475826
F-74.02499682812511
tp286
sV14290824
p287
(F40.669557124814126
F-73.91589735495253
tp288
sV45814945
p289
(F48.878662517545045
F2.3317834970711027
tp290
sV50389919
p291
(F28.592484212765505
F77.24016345000054
tp292
sV80468509
p293
(F28.574561693329436
F77.18161494275506
tp294
sV22199379
p295
(F39.92543820281521
F116.42795023181048
tp296
sV78854321
p297
(F40.79326251369058
F-73.93730283446199
tp298
sV46859679
p299
(F28.573852465099023
F77.16309355896132
tp300
sV78836464
p301
(F39.93027002281359
F116.39505243193078
tp302
sV65666852
p303
(F40.811582469821566
F-73.95385300963106
tp304
sV88049465
p305
(F40.73495993344144
F-73.95018430278934
tp306
sV33339634
p307
(F41.905721688931024
F-87.6771912022763
tp308
sV58213308
p309
(F40.76682820271639
F-74.00827750261605
tp310
sV75738808
p311
(F41.84970456282633
F-87.67346770944656
tp312
sV00870436
p313
(F28.598117169534486
F77.21376851721986
tp314
sV88416557
p315
(F40.70531062456777
F-73.93411161848084
tp316
sV75544591
p317
(F40.71714853077552
F-73.92497958146664
tp318
sV66448723
p319
(F39.91304419262438
F116.42661851301675
tp320
sV43969326
p321
(F40.73095680394075
F-73.98986477986502
tp322
sV54187702
p323
(F40.79710901331171
F-73.99030343812237
tp324
sV90524059
p325
(F40.76004856734532
F-73.95824434574224
tp326
sV22519597
p327
(F48.86742936099942
F2.3573736351210206
tp328
sV22874429
p329
(F41.89142764093555
F-87.67120703642766
tp330
sV81748426
p331
(F39.94449591024671
F116.44466370576345
tp332
sV96988855
p333
(F40.80476349900419
F-73.9296870641443
tp334
sV16979932
p335
(F48.86123510492088
F2.3399541264198027
tp336
sV10039830
p337
(F41.87799124719563
F-87.62023139067612
tp338
sV18198874
p339
(F40.80390264617335
F-73.98141734891105
tp340
sV85619920
p341
(F40.71407594461302
F-73.96507545822617
tp342
sV31695800
p343
(F39.950074579509625
F116.39249035499796
tp344
sV77353801
p345
(F39.90545816173127
F116.3730461674538
tp346
sV15852656
p347
(F40.6388274142534
F-73.90937788704751
tp348
sV91170378
p349
(F40.64756184337994
F-73.96121196470088
tp350
sV88590509
p351
(F40.720538110295074
F-73.89902430906841
tp352
sV58962800
p353
(F39.92385730656364
F116.45064308960313
tp354
sV00517379
p355
(F39.85870893506873
F116.39060798064428
tp356
sV77028952
p357
(F48.874073199498895
F2.325062727844225
tp358
sV90965425
p359
(F39.91269303396788
F116.44275842996889
tp360
sV02020778
p361
(F28.61728119126246
F77.18696127186969
tp362
sV65305522
p363
(F40.67636616595122
F-73.97930100388095
tp364
sV39649751
p365
(F48.807228246701136
F2.3431426781940328
tp366
sV72512777
p367
(F28.63066429961768
F77.19931371433246
tp368
sV56364248
p369
(F39.89018310168783
F116.40565822599052
tp370
sV53443595
p371
(F40.72546762476024
F-73.95139360518262
tp372
sV89398043
p373
(F40.694198238389994
F-73.9392883815321
tp374
sV54207509
p375
(F48.869761822676196
F2.3047134737150015
tp376
sV32574234
p377
(F40.67479494688835
F-73.92305996357743
tp378
sV19751979
p379
(F28.563981871716894
F77.19700732366313
tp380
sV42055969
p381
(F40.69556948662089
F-73.98678835657324
tp382
sV49308631
p383
(F40.729348219137265
F-74.01835048368717
tp384
sV62543064
p385
(F28.573685162519695
F77.1809151470502
tp386
sV44520717
p387
(F28.573214983433836
F77.2285698332608
tp388
sV97742081
p389
(F28.583413211150944
F77.2054246237267
tp390
sV78779129
p391
(F40.63555996067663
F-73.97272215493746
tp392
sV84096784
p393
(F48.860112490670325
F2.3093266137440516
tp394
sV20490645
p395
(F40.6763655189799
F-73.89542514943136
tp396
sV61943582
p397
(F40.71065535034472
F-73.93400381986903
tp398
sV95646923
p399
(F28.622779137685892
F77.16444766048616
tp400
sV79752893
p401
(F28.594708873616163
F77.2486391903558
tp402
sV64459264
p403
(F39.90915511053641
F116.4146999429658
tp404
sV60716507
p405
(F41.905437044171755
F-87.67401045945643
tp406
sV00567442
p407
(F40.744677272880814
F-73.98481510163805
tp408
sV75330521
p409
(F48.838619117837645
F2.3993573624209112
tp410
sV76374975
p411
(F39.87087099049093
F116.40670109764851
tp412
sV89662335
p413
(F28.57292748736292
F77.17839882994443
tp414
sV84890672
p415
(F48.84394963447598
F2.3588600697206616
tp416
sV01685749
p417
(F40.75043386878779
F-73.95285197141149
tp418
sV00164320
p419
(F48.84568082896015
F2.3803469542098914
tp420
sV35268468
p421
(F28.565988509665093
F77.21497994327785
tp422
sV17085595
p423
(F40.80049872550207
F-73.94759422999512
tp424
sV90688843
p425
(F40.63186778547327
F-73.94707673724943
tp426
sV55425575
p427
(F40.681319035741325
F-73.97529665041044
tp428
sV93666466
p429
(F40.78361287516059
F-73.94382871701866
tp430
sV78782204
p431
(F48.81503444548583
F2.383107836244628
tp432
sV86353946
p433
(F48.83996434032149
F2.384816841505532
tp434
sV61660229
p435
(F40.776541378639386
F-73.95733754225607
tp436
sV85682863
p437
(F48.82682728006623
F2.3197131808241633
tp438
sV72425671
p439
(F41.85610199648923
F-87.66022576080961
tp440
sV63046045
p441
(F48.81549036180372
F2.331296517289634
tp442
sV26678801
p443
(F40.663553498073924
F-73.91798788296326
tp444
sV63633566
p445
(F40.73851075729225
F-73.98498634205534
tp446
sV24252393
p447
(F48.86314970616507
F2.3146963513582266
tp448
sV06226862
p449
(F40.738068988973566
F-74.02122870579579
tp450
sV29296811
p451
(F40.699980079856424
F-73.9921450427395
tp452
sV68807641
p453
(F40.72668997831426
F-73.98810102749631
tp454
sV90662249
p455
(F40.672624492373544
F-73.98685509462887
tp456
sV77529916
p457
(F40.72985043400851
F-73.92916579412606
tp458
sV82031367
p459
(F41.85268219398052
F-87.6940327978966
tp460
sV09545304
p461
(F39.952926771750946
F116.43850386054616
tp462
sV90368806
p463
(F40.66155282645486
F-73.89532709503234
tp464
sV37322748
p465
(F39.888947493926146
F116.41172243564492
tp466
sV15707031
p467
(F48.84768779371449
F2.3572323220541933
tp468
sV28116899
p469
(F40.68906732542784
F-73.96823038310826
tp470
sV75431693
p471
(F39.9279706317162
F116.4510611731832
tp472
sV14628344
p473
(F28.63607095103213
F77.25136804086449
tp474
sV76087745
p475
(F41.86173692198669
F-87.69700319921574
tp476
sV71097640
p477
(F41.837509355779446
F-87.61256079381432
tp478
sV56382297
p479
(F40.73409672226923
F-74.02630179425353
tp480
sV22867889
p481
(F39.86370174726796
F116.4408132489065
tp482
sV87454079
p483
(F28.624148119732627
F77.18249361882965
tp484
sV11966456
p485
(F40.80476807362341
F-73.9424952839865
tp486
sV49197662
p487
(F48.82954184704838
F2.308775981206036
tp488
sV17346832
p489
(F40.65292705904961
F-73.95508894056937
tp490
sV23521537
p491
(F39.8568863835458
F116.41170588974597
tp492
sV59817130
p493
(F39.87339568321146
F116.40848706076152
tp494
sV84277718
p495
(F48.87701804460332
F2.353303767572674
tp496
sV16304451
p497
(F41.83607577241598
F-87.66234561229516
tp498
sV20902421
p499
(F40.74583081170031
F-73.97358698726964
tp500
sV81125265
p501
(F28.657266866789964
F77.25037460983789
tp502
sV55562515
p503
(F39.91617132649563
F116.43663626933554
tp504
sV60961952
p505
(F40.81030514091741
F-74.00527332006077
tp506
sV62418478
p507
(F40.719308533930025
F-73.94800385591653
tp508
sV05971534
p509
(F39.951857480547794
F116.44961987424729
tp510
sV73271826
p511
(F40.631499241863324
F-73.91890101412343
tp512
sV21561382
p513
(F41.83417474862543
F-87.63295355743718
tp514
sV98674220
p515
(F40.68694708585955
F-73.91790335432451
tp516
sV51476199
p517
(F48.89131291867296
F2.393320562153954
tp518
sV29201273
p519
(F48.889891563006415
F2.3488926003775323
tp520
sV45477188
p521
(F39.94508757358422
F116.40462445003524
tp522
sV27562079
p523
(F28.65934789920126
F77.22328539827458
tp524
sV58935866
p525
(F40.762508975602394
F-73.9546602269935
tp526
sV82945152
p527
(F48.899974061783105
F2.3252989098404333
tp528
sV18817492
p529
(F41.860919076889104
F-87.60834598501839
tp530
sV24044226
p531
(F41.879442709742264
F-87.66140744124974
tp532
sV28007357
p533
(F48.87270452329785
F2.3181867908349396
tp534
sV46546449
p535
(F39.90411189490828
F116.44530714511583
tp536
sV23741065
p537
(F41.84033638437845
F-87.61622794914994
tp538
sV42055419
p539
(F39.91073205550923
F116.42301197659921
tp540
sV74287963
p541
(F41.88153948011059
F-87.61409215254365
tp542
sV18769234
p543
(F40.76295686397809
F-74.01118786199429
tp544
sV23341333
p545
(F40.680074236910386
F-73.96464926968952
tp546
sV72215142
p547
(F40.656213309467375
F-73.89919110431559
tp548
sV78259201
p549
(F40.67577814974485
F-73.97649039016166
tp550
sV58482407
p551
(F39.89184848488685
F116.45208505017055
tp552
sV04828860
p553
(F28.616253951297296
F77.169065134077
tp554
sV21696800
p555
(F48.82079107998246
F2.373962300668732
tp556
sV23405974
p557
(F28.609006629436724
F77.25862786145741
tp558
sV23732254
p559
(F39.90617662852976
F116.40156698428085
tp560
sV31642200
p561
(F48.903867861484834
F2.3317909830749874
tp562
sV86916196
p563
(F39.94064176974852
F116.42605051811371
tp564
sV53856920
p565
(F41.88159541646876
F-87.6035284448073
tp566
sV98069439
p567
(F28.651621239168097
F77.24492546912073
tp568
sV83515606
p569
(F39.867512868321434
F116.39121316925356
tp570
sV29245406
p571
(F39.90902482375426
F116.40071154551686
tp572
sV98043064
p573
(F41.91639237102172
F-87.64493688629251
tp574
sV27717868
p575
(F40.73848863677862
F-73.96045280429934
tp576
sV73925811
p577
(F48.8835665260249
F2.3853874805239643
tp578
sV75720780
p579
(F40.66528640286838
F-73.95476366449726
tp580
sV12685790
p581
(F28.597577835114066
F77.18658089491511
tp582
sV26792538
p583
(F48.81802865490717
F2.352646140886323
tp584
sV85181595
p585
(F39.868952287832705
F116.40908142211072
tp586
sV74279241
p587
(F40.70912407511963
F-73.98661263438096
tp588
sV51558130
p589
(F41.84740337969868
F-87.66992859416034
tp590
sV25713831
p591
(F40.795710429360874
F-73.95914609483344
tp592
sV42124115
p593
(F48.84529328417557
F2.372349619475308
tp594
sV91968364
p595
(F40.63871675215842
F-73.9619362229663
tp596
sV22937940
p597
(F39.93805306402516
F116.40127305533446
tp598
sV25675627
p599
(F39.90371847721467
F116.37974084391888
tp600
sV56560800
p601
(F39.920550918428525
F116.42244884408431
tp602
sV72397794
p603
(F28.607835592276746
F77.24796111574025
tp604
sV01839623
p605
(F48.838446112654744
F2.363703782635472
tp606
sV31729833
p607
(F39.89297272030506
F116.41604842179872
tp608
sV32728125
p609
(F41.92596053909441
F-87.69530059989872
tp610
sV81851232
p611
(F39.890072526283035
F116.44978223665805
tp612
sV91502995
p613
(F48.85326242342314
F2.3568529963884854
tp614
sV72093870
p615
(F40.72749548954115
F-73.95632643200427
tp616
sV37479091
p617
(F28.613976846804096
F77.24858022781507
tp618
sV07113437
p619
(F48.885015752892
F2.3403976780316764
tp620
sV60278388
p621
(F39.95387320842297
F116.4491921454641
tp622
sV25118278
p623
(F28.570795188802915
F77.22431375293621
tp624
sV22042835
p625
(F48.847352922307216
F2.3051763003484202
tp626
sV49676129
p627
(F40.67346014914019
F-73.92002720035137
tp628
sV95061153
p629
(F40.70889718224282
F-73.9179838083713
tp630
sV02351841
p631
(F40.72551086636758
F-73.94743719877762
tp632
sV85947702
p633
(F41.887933971191266
F-87.68251557910726
tp634
sV50760848
p635
(F40.68463792177053
F-73.9892399162823
tp636
sV02754581
p637
(F48.84195904084963
F2.345524131689854
tp638
sV58372869
p639
(F39.90531451457048
F116.36255281959993
tp640
sV36321643
p641
(F40.70592127875958
F-73.97394376292793
tp642
sV65220283
p643
(F39.87326933149477
F116.41234231518142
tp644
sV50435142
p645
(F48.82917069864355
F2.354235611472025
tp646
sV47395367
p647
(F40.654417979642375
F-73.92477889983836
tp648
sV34258217
p649
(F48.883374334179955
F2.3943570027955
tp650
sV09538290
p651
(F40.67624460620335
F-73.96440957178673
tp652
sV39942166
p653
(F40.70372779136292
F-73.96901474438523
tp654
sV23092181
p655
(F41.92171397249683
F-87.62913021011694
tp656
sV61557321
p657
(F28.604692869027758
F77.16887177324664
tp658
sV64472959
p659
(F39.87161538059717
F116.38114536227766
tp660
sV44590543
p661
(F28.633982249192613
F77.22041008964383
tp662
sV10274798
p663
(F40.794988700811466
F-74.01122579520337
tp664
sV83792182
p665
(F41.92882346955338
F-87.69224477107628
tp666
sV91697530
p667
(F28.577662579236694
F77.1832373536098
tp668
sV91361448
p669
(F48.85368959328643
F2.3720841469127065
tp670
sV50308378
p671
(F28.61769950830091
F77.20643794206693
tp672
sV66110163
p673
(F40.632930702340786
F-73.97794627669445
tp674
sV35823445
p675
(F39.903601286456954
F116.43877999545013
tp676
sV48533096
p677
(F40.63924147344515
F-73.94904771691792
tp678
sV68471774
p679
(F40.71786557962683
F-73.96612923875779
tp680
sV19531212
p681
(F40.75644605534367
F-74.025686392451
tp682
sV06450403
p683
(F40.786849907462006
F-74.01461591004276
tp684
sV65790847
p685
(F39.86893182740717
F116.38839228366444
tp686
sV98162437
p687
(F48.89520253724276
F2.3108682826663083
tp688
sV64051789
p689
(F28.565960814713137
F77.16338071708257
tp690
sV30460539
p691
(F48.84004009113043
F2.3739356399742824
tp692
sV70785623
p693
(F48.84235647633455
F2.3311011282916754
tp694
sV34727201
p695
(F41.841600370533925
F-87.64579401118915
tp696
sV05332465
p697
(F40.68580971693557
F-73.91576169610343
tp698
sV02345512
p699
(F48.85528683763763
F2.3220466140616383
tp700
sV62659758
p701
(F28.570170444161704
F77.24548527062417
tp702
sV37542863
p703
(F40.66473968189059
F-73.96951245736221
tp704
sV75630553
p705
(F40.80560490297478
F-73.96843918878133
tp706
sV06816506
p707
(F28.6609438939593
F77.21873351751412
tp708
sV79923354
p709
(F39.87815680372577
F116.3778687539992
tp710
sV91787637
p711
(F28.573135591767382
F77.22667831355659
tp712
sV40654720
p713
(F39.87170837458047
F116.36933642546536
tp714
sV22338099
p715
(F48.860742861400354
F2.362452871497995
tp716
sV51248017
p717
(F40.645075966061015
F-73.98097648729404
tp718
sV85765238
p719
(F39.95315528663082
F116.41870227517025
tp720
sV14056918
p721
(F39.869823370707515
F116.4250331783925
tp722
sV66785293
p723
(F40.80744572324444
F-73.93833721737835
tp724
sV97525950
p725
(F48.808345688891116
F2.3975111558315394
tp726
sV37801489
p727
(F40.71035978509481
F-73.95427054296098
tp728
sV63838619
p729
(F41.85730189617552
F-87.68802391053399
tp730
sV11228738
p731
(F48.862140107815925
F2.353924659040987
tp732
sV41809075
p733
(F39.919033809284116
F116.3596240124363
tp734
sV68207014
p735
(F40.727472432990446
F-73.96955867083828
tp736
sV15636171
p737
(F40.76338318988484
F-73.93600868707478
tp738
sV52969874
p739
(F28.59925062706293
F77.18097705970882
tp740
sV79328081
p741
(F28.617394521760012
F77.20683676917342
tp742
sV92407862
p743
(F48.80911450507554
F2.3236557395761746
tp744
sV32313963
p745
(F48.906488340393466
F2.3783405203156773
tp746
sV33150581
p747
(F40.7133914813574
F-73.99837923542655
tp748
sV67846504
p749
(F28.574940418733313
F77.16627688701544
tp750
sV78262881
p751
(F48.823093764030105
F2.336244228217106
tp752
sV46995452
p753
(F48.83717843826349
F2.3161283381063265
tp754
sV06524623
p755
(F41.91394055413032
F-87.69676377714019
tp756
sV53167231
p757
(F40.719669444037606
F-74.02004519612726
tp758
sV56072679
p759
(F28.612555291525293
F77.16067651480823
tp760
sV21984839
p761
(F40.65714200239608
F-73.90793071628345
tp762
sV13475017
p763
(F41.877335971345765
F-87.61566336139799
tp764
sV45982668
p765
(F28.615982170510954
F77.22577941756802
tp766
sV13678050
p767
(F40.709605627706836
F-73.96907295757684
tp768
sV58238257
p769
(F40.63535231819267
F-73.93345274329202
tp770
sV65891230
p771
(F40.65307750763087
F-73.93348641153597
tp772
sV83548017
p773
(F28.59076137567373
F77.25113699382007
tp774
sV75838003
p775
(F48.881006120351664
F2.397222453362628
tp776
sV43145041
p777
(F40.784401342755444
F-73.95708771273638
tp778
sV89680391
p779
(F40.73448991801906
F-73.97412289671243
tp780
sV52661426
p781
(F48.849561124255274
F2.3701628409079394
tp782
sV70774740
p783
(F28.608316082856174
F77.20628364833802
tp784
sV08842862
p785
(F40.76048902183895
F-73.97385802913574
tp786
sV12938612
p787
(F28.566488600051848
F77.24121377473683
tp788
sV97091455
p789
(F41.85189070506538
F-87.6110349138992
tp790
sV92633070
p791
(F40.730018785053716
F-73.989862258714
tp792
sV98580989
p793
(F28.65109754545283
F77.25515312125233
tp794
sV22557360
p795
(F40.661917953010665
F-73.92720209905772
tp796
sV67625802
p797
(F39.88259344217653
F116.4080143646421
tp798
sV29271726
p799
(F40.67785811603708
F-73.97627927622322
tp800
sV16831759
p801
(F28.638651774334
F77.2507822296039
tp802
sV95584270
p803
(F39.89221196656214
F116.39934250297057
tp804
sV37508050
p805
(F28.644424421249457
F77.18812639319412
tp806
sV04659181
p807
(F48.90356142380961
F2.3457186221611046
tp808
sV21496271
p809
(F28.616778331233526
F77.1844635114156
tp810
sV12666324
p811
(F39.87084709350232
F116.37394205693712
tp812
sV74631261
p813
(F40.7481812533379
F-73.93392552857688
tp814
sV45948749
p815
(F40.73620530528763
F-73.95230843039116
tp816
sV66206934
p817
(F40.664144446544924
F-73.96573069461066
tp818
sV36757367
p819
(F28.56740858648783
F77.25545333910334
tp820
sV07639494
p821
(F48.844873014882246
F2.390303178393771
tp822
sV59430377
p823
(F48.859263722578184
F2.3773074317637515
tp824
sV56779363
p825
(F41.92078921934598
F-87.61974994252677
tp826
sV19608662
p827
(F40.685850982382554
F-73.95995876813927
tp828
sV92573079
p829
(F41.926605440482085
F-87.61928048013633
tp830
sV92666160
p831
(F40.682829792922966
F-73.93599983595576
tp832
sV22749109
p833
(F39.860685900882636
F116.42017018768492
tp834
sV78231740
p835
(F48.81197432733585
F2.319708613302638
tp836
sV34174807
p837
(F41.84792593284825
F-87.62358376660261
tp838
sV91500281
p839
(F40.75799660045247
F-73.9591392858038
tp840
sV23066038
p841
(F28.57206362296348
F77.25840585588062
tp842
sV34914229
p843
(F41.90101835447598
F-87.68140284632838
tp844
sV46165817
p845
(F28.620322112021093
F77.20528941633277
tp846
sV61740754
p847
(F40.738848896726076
F-73.9338093041701
tp848
sV60010537
p849
(F40.79107431984082
F-73.99170860707301
tp850
sV93046121
p851
(F48.82532914387507
F2.354579170351923
tp852
sV49673159
p853
(F40.663095591910746
F-73.9233499722059
tp854
sV51315054
p855
(F28.640738408128676
F77.21935879077546
tp856
sV15832726
p857
(F39.92404950672738
F116.38399411697912
tp858
sV42941798
p859
(F28.65304883528026
F77.19488286358138
tp860
sV99702700
p861
(F48.855423398225845
F2.3739133625888065
tp862
sV34535486
p863
(F41.8799275279692
F-87.68320193283797
tp864
sV50099832
p865
(F41.916583369312455
F-87.60035560739527
tp866
sV59718703
p867
(F40.698415608000005
F-73.92378840368283
tp868
sV36862719
p869
(F40.6732034222301
F-73.96089184848773
tp870
sV67505241
p871
(F41.9127201079777
F-87.65545239544801
tp872
sV57400518
p873
(F39.92596935807286
F116.36081975076642
tp874
sV71717319
p875
(F48.873599665862905
F2.3361206163957067
tp876
sV02859606
p877
(F28.661088767329556
F77.21980160238456
tp878
sV30450738
p879
(F40.629691774461406
F-73.90982214579518
tp880
sV42131717
p881
(F28.660271893620777
F77.25027299029043
tp882
sV65367285
p883
(F40.68876617275138
F-73.9583281434607
tp884
sV73059165
p885
(F39.92919601302954
F116.41411591186295
tp886
sV72855492
p887
(F39.94261362381278
F116.45592702444496
tp888
sV48488006
p889
(F28.613075673334126
F77.17419580686992
tp890
sV18382365
p891
(F40.78706824941434
F-73.95082781655182
tp892
sV24338967
p893
(F40.63505639380475
F-73.97667710524613
tp894
sV24815093
p895
(F39.92909809215349
F116.45582730453762
tp896
sV19399300
p897
(F39.90601525326397
F116.41992889117743
tp898
sV69020186
p899
(F28.59395232621441
F77.17423869274451
tp900
sV33085944
p901
(F48.89292822628203
F2.354881276174961
tp902
sV33828787
p903
(F41.90132629527201
F-87.60579276097357
tp904
sV61039353
p905
(F40.77650400035449
F-74.00732928722901
tp906
sV94833331
p907
(F40.63145261975747
F-73.93621538237578
tp908
sV01164633
p909
(F40.72591384675894
F-73.97064474711087
tp910
sV63249736
p911
(F28.637949386315466
F77.18368664063433
tp912
sV71937731
p913
(F40.65714438376713
F-73.9385963435557
tp914
sV09245884
p915
(F39.86237063045791
F116.35890696130784
tp916
sV71883557
p917
(F40.66818440580604
F-73.92650303857832
tp918
sV15230911
p919
(F48.88673200241197
F2.3228157899818918
tp920
sV73379003
p921
(F40.640636107430026
F-73.9928621109969
tp922
sV70991598
p923
(F28.58748640414041
F77.17719212524199
tp924
sV93424509
p925
(F40.64562660182599
F-73.93289562369182
tp926
sV60194190
p927
(F28.633722410143747
F77.22902079958281
tp928
sV42149323
p929
(F41.85178605402707
F-87.62116311579966
tp930
sV72793169
p931
(F28.614597935821593
F77.25485714294452
tp932
sV56364255
p933
(F40.715075510099254
F-73.93441004139933
tp934
sV44225537
p935
(F48.85387483745639
F2.3778564142581287
tp936
sV73555360
p937
(F28.596677171287375
F77.2557548322062
tp938
sV60307132
p939
(F40.668755156929244
F-73.97969606769858
tp940
sV85775800
p941
(F40.79565757521572
F-73.99024291734999
tp942
sV58225561
p943
(F40.68275265978304
F-73.95018868694544
tp944
sV39647450
p945
(F40.78895821881146
F-73.93498537977615
tp946
sV47806832
p947
(F28.660465304921793
F77.22185534587345
tp948
sV52106156
p949
(F48.87656735365267
F2.3908354708769624
tp950
sV51340292
p951
(F28.60577019930183
F77.23696494671832
tp952
sV66223573
p953
(F39.8857206651742
F116.40793033186547
tp954
sV16576896
p955
(F28.578377143215924
F77.18527514830434
tp956
sV34438206
p957
(F40.79820919822854
F-73.93386230286133
tp958
sV56758405
p959
(F48.892018119811084
F2.364177075211985
tp960
sV49706192
p961
(F39.86535064636317
F116.40269109482556
tp962
sV02973883
p963
(F28.630299052366198
F77.1857625145631
tp964
sV45688638
p965
(F40.726395530991695
F-73.98945006647521
tp966
sV25289916
p967
(F40.65669108666537
F-73.90293588215762
tp968
sV76574863
p969
(F48.857484985018054
F2.3375073095066323
tp970
sV79070553
p971
(F41.91635230137144
F-87.62633028576191
tp972
sV17891868
p973
(F28.646853304009838
F77.1996875082848
tp974
sV21763083
p975
(F39.90216563080028
F116.43282404576057
tp976
sV89445969
p977
(F40.78320332326776
F-74.01924374067636
tp978
sV92156883
p979
(F28.566624718215962
F77.21588817321754
tp980
sV43492732
p981
(F48.857591547695705
F2.326213310304592
tp982
sV27036914
p983
(F39.91855799472807
F116.44383734951283
tp984
sV00980562
p985
(F39.91271353025055
F116.45457359084408
tp986
sV76556456
p987
(F28.62170537078557
F77.25212749293263
tp988
sV03659052
p989
(F40.63324997915316
F-73.96347716926434
tp990
sV03909799
p991
(F39.89494721125365
F116.3873017686686
tp992
sV33075440
p993
(F28.574622733266516
F77.25488365200235
tp994
sV00424318
p995
(F40.64434928915903
F-73.94647798396852
tp996
sV50000043
p997
(F41.851832987055595
F-87.64014238304168
tp998
sV83265693
p999
(F28.62882586050197
F77.16306258180659
tp1000
sV10707708
p1001
(F39.87139847309649
F116.38402111626151
tp1002
sV48552905
p1003
(F40.70799546778229
F-73.94332136653965
tp1004
sV17190145
p1005
(F40.68414702072287
F-73.90624574901094
tp1006
sV55449236
p1007
(F41.86139784874811
F-87.65350408790098
tp1008
sV32524079
p1009
(F41.84091568938146
F-87.68412035657018
tp1010
sV02933351
p1011
(F28.564452205450884
F77.19711134343211
tp1012
sV21766770
p1013
(F28.593049974243346
F77.22812305601722
tp1014
sV62971027
p1015
(F40.694461156888
F-73.92399025804329
tp1016
sV46645647
p1017
(F40.656222299106744
F-73.9523480215102
tp1018
sV39897466
p1019
(F39.93757263829759
F116.44218461343472
tp1020
sV76031731
p1021
(F39.8663279378871
F116.36811215719521
tp1022
sV67823963
p1023
(F40.6907318270393
F-73.90364977732844
tp1024
sV97372004
p1025
(F40.79993571326143
F-74.01458978741638
tp1026
sV09190191
p1027
(F40.72727282279179
F-73.9403906765993
tp1028
sV54779174
p1029
(F28.644185089721404
F77.2011870062016
tp1030
sV82989231
p1031
(F39.92633782049195
F116.37524998980103
tp1032
sV00886802
p1033
(F40.637821454309474
F-73.9565848892597
tp1034
sV30241534
p1035
(F48.88395704996648
F2.3529803409076493
tp1036
sV11480273
p1037
(F41.83681829652544
F-87.66212682123353
tp1038
sV61088139
p1039
(F48.8889710270798
F2.3163320360500768
tp1040
sV46660169
p1041
(F48.847167317291216
F2.3273072754352513
tp1042
sV35311553
p1043
(F39.85879086457179
F116.42254540635813
tp1044
sV23852716
p1045
(F28.58667742772586
F77.23393611728973
tp1046
sV17672429
p1047
(F41.85076121724251
F-87.68699798074884
tp1048
sV08136992
p1049
(F39.93359164310025
F116.37578508791057
tp1050
sV11889205
p1051
(F39.95063192812368
F116.3859813737881
tp1052
sV33805061
p1053
(F40.661448355593755
F-73.99366632543882
tp1054
sV72862551
p1055
(F28.57867286341833
F77.2324581466769
tp1056
sV60249821
p1057
(F28.569523715270478
F77.19042264386839
tp1058
sV40171487
p1059
(F40.7223701578717
F-73.98179948932216
tp1060
sV19607252
p1061
(F41.91642411022051
F-87.65132029036205
tp1062
sV21240690
p1063
(F41.88851642396296
F-87.60384387780847
tp1064
sV06179366
p1065
(F28.57178437322325
F77.21553267423921
tp1066
sV06174033
p1067
(F40.795122635819475
F-73.98318051953147
tp1068
sV51165963
p1069
(F48.8656187636814
F2.391334957157761
tp1070
sV05089154
p1071
(F40.690131724978734
F-73.97480066820368
tp1072
sV78434622
p1073
(F40.734982759835745
F-73.95291288609988
tp1074
sV51249557
p1075
(F41.89742112514181
F-87.67514339879672
tp1076
sV64696973
p1077
(F41.86001729939102
F-87.64846917018392
tp1078
sV18050813
p1079
(F40.709924033881656
F-73.97111240283236
tp1080
sV42084891
p1081
(F40.799457151755675
F-73.94490465477516
tp1082
sV73053729
p1083
(F41.842206951522826
F-87.64356445201373
tp1084
sV87123364
p1085
(F28.64524602433931
F77.1715501665749
tp1086
sV76467509
p1087
(F39.87555181485922
F116.44463188238234
tp1088
sV92476929
p1089
(F40.67075184233862
F-73.97610015982666
tp1090
sV28002581
p1091
(F41.866904426087075
F-87.65086871942017
tp1092
sV65944011
p1093
(F39.92223117356214
F116.45337716882248
tp1094
sV11709725
p1095
(F28.6145570978231
F77.25513194641114
tp1096
sV48182126
p1097
(F40.753361589869925
F-73.95257931398389
tp1098
sV65506820
p1099
(F28.640000515016826
F77.24124288461653
tp1100
sV08937339
p1101
(F28.61863376355234
F77.25710621512786
tp1102
sV34424834
p1103
(F28.653861387242724
F77.25755958902232
tp1104
sV42364719
p1105
(F39.92710549473623
F116.38116892266575
tp1106
sV48916042
p1107
(F48.83758440437015
F2.3513252802350073
tp1108
sV97633570
p1109
(F28.600385546439444
F77.25452305476797
tp1110
sV56067378
p1111
(F39.94474072367105
F116.37404876508
tp1112
sV60710284
p1113
(F48.807294887956495
F2.37837530748959
tp1114
sV74101085
p1115
(F41.841583154644425
F-87.68822492425029
tp1116
sV72304525
p1117
(F41.88430748151546
F-87.62315139475358
tp1118
sV50654109
p1119
(F48.87409973527933
F2.32171063539614
tp1120
sV01468915
p1121
(F40.73076283845327
F-73.94966877531648
tp1122
sV98348466
p1123
(F40.65579441745502
F-73.91272445001648
tp1124
sV21772894
p1125
(F28.613918080033805
F77.22318639052331
tp1126
sV67651887
p1127
(F39.94311530901176
F116.4360472560618
tp1128
sV68882129
p1129
(F48.848037408194514
F2.358262938352689
tp1130
sV89786529
p1131
(F40.7429021254146
F-73.93814389462581
tp1132
sV41319482
p1133
(F39.8850277325692
F116.38987529811403
tp1134
sV59823179
p1135
(F40.6886931785999
F-73.96686981822434
tp1136
sV66294207
p1137
(F48.904215594347065
F2.3852108609814713
tp1138
sV78098992
p1139
(F48.82731291365908
F2.401040117519242
tp1140
sV77048530
p1141
(F40.635068989543825
F-73.91238935496413
tp1142
sV40765136
p1143
(F40.78563156122125
F-73.97954558327662
tp1144
sV25955569
p1145
(F40.77744454907295
F-73.94431391024769
tp1146
sV26663562
p1147
(F41.85192521333391
F-87.61383798661153
tp1148
sV00123051
p1149
(F40.692839848042816
F-73.89987418660044
tp1150
sV50617586
p1151
(F28.656433387264155
F77.23478052511905
tp1152
sV76609459
p1153
(F40.63384578625043
F-73.91883589310666
tp1154
sV59494874
p1155
(F28.615181999706415
F77.19669885926866
tp1156
sV97091806
p1157
(F40.8072403412005
F-73.94411674806953
tp1158
sV02723716
p1159
(F48.868188103202606
F2.302627007117219
tp1160
sV90190339
p1161
(F39.85743568766072
F116.36638719195547
tp1162
sV29696727
p1163
(F48.868814405176835
F2.350001123881651
tp1164
sV39018434
p1165
(F39.94513586442021
F116.4049950308839
tp1166
sV08127990
p1167
(F48.86113724907829
F2.396569363412238
tp1168
sV59662730
p1169
(F40.740893112109106
F-74.02384209194564
tp1170
sV79710930
p1171
(F39.85499698871424
F116.41143430960213
tp1172
sV26719375
p1173
(F39.95085747140988
F116.3757635643954
tp1174
sV26044729
p1175
(F48.86725891049893
F2.3307228471193664
tp1176
sV80816607
p1177
(F39.90025619424161
F116.42382973822608
tp1178
sV74086528
p1179
(F40.72628875188522
F-73.97194581435669
tp1180
sV58869505
p1181
(F48.86251774117072
F2.336430586340721
tp1182
sV90815560
p1183
(F41.8334497572753
F-87.62735708094927
tp1184
sV55713191
p1185
(F48.810734190422906
F2.343792929324329
tp1186
sV40746234
p1187
(F39.91447949009853
F116.41368423118935
tp1188
sV91183699
p1189
(F48.89467461800479
F2.337148990948173
tp1190
sV26941608
p1191
(F39.94051095203001
F116.3824788453017
tp1192
sV46085108
p1193
(F41.83950801523762
F-87.64158265988159
tp1194
sV31355452
p1195
(F48.82182964168725
F2.349651591734426
tp1196
sV82834364
p1197
(F48.84708525304686
F2.3159298651193905
tp1198
sV05626847
p1199
(F48.8451720326892
F2.340006890423123
tp1200
sV78146679
p1201
(F39.92014074370674
F116.40773388543562
tp1202
sV26785622
p1203
(F40.699032801052304
F-73.99363553500065
tp1204
sV35262862
p1205
(F39.92320996438091
F116.3845522298547
tp1206
sV21437724
p1207
(F41.84438830676467
F-87.69050954228514
tp1208
sV72713983
p1209
(F41.890234469447236
F-87.64139509210416
tp1210
sV95059211
p1211
(F40.66669286504878
F-73.98412116071157
tp1212
sV93842310
p1213
(F28.564340426527174
F77.21907435972099
tp1214
sV03254226
p1215
(F39.88015530750333
F116.44612180688148
tp1216
sV78626409
p1217
(F48.85685880100587
F2.3211398045523794
tp1218
sV42457275
p1219
(F28.61841279168629
F77.22996883725267
tp1220
sV34975367
p1221
(F39.87222541294294
F116.41465030117223
tp1222
sV43495467
p1223
(F40.645065595798144
F-73.99199305266187
tp1224
sV66144359
p1225
(F40.637430795985715
F-73.90956390969883
tp1226
sV96782071
p1227
(F41.92582037448228
F-87.63248284168007
tp1228
sV18376418
p1229
(F39.885694032842
F116.39801884555139
tp1230
sV65224137
p1231
(F48.818444955169966
F2.3062241880186396
tp1232
sV03893791
p1233
(F48.862922901319244
F2.384448421897043
tp1234
sV02174877
p1235
(F40.70072198865597
F-73.98453303326777
tp1236
sV84875495
p1237
(F48.89907951425297
F2.3504087990560154
tp1238
sV25903386
p1239
(F39.88408824819607
F116.44324779612313
tp1240
sV64119502
p1241
(F40.750773315056335
F-73.93208406248603
tp1242
sV34427354
p1243
(F41.859849184004304
F-87.60929446549436
tp1244
sV00340083
p1245
(F41.85579139952426
F-87.65673313250113
tp1246
sV82603557
p1247
(F28.657579278204505
F77.19350010279622
tp1248
sV81460236
p1249
(F40.75661905628238
F-73.96722070257758
tp1250
sV94698633
p1251
(F40.63436355510874
F-73.96622886928958
tp1252
sV30187016
p1253
(F39.95161867487954
F116.4052490490308
tp1254
sV90625350
p1255
(F41.930201828222025
F-87.6354906564131
tp1256
sV03526095
p1257
(F41.897877617483054
F-87.6529781593143
tp1258
sV38485862
p1259
(F48.87046104663884
F2.375637197366563
tp1260
sV00486781
p1261
(F39.907207031989024
F116.37285502131783
tp1262
sV34212974
p1263
(F41.83798768276563
F-87.68772236454754
tp1264
sV18828443
p1265
(F41.913876100643485
F-87.68518845505068
tp1266
sV23259508
p1267
(F40.630269522053254
F-73.98108469713542
tp1268
sV46334442
p1269
(F40.712907131488016
F-73.93348335271061
tp1270
sV02188584
p1271
(F28.644874513371466
F77.19167923399937
tp1272
sV96288931
p1273
(F41.88040319693247
F-87.68159798542243
tp1274
sV32815375
p1275
(F40.71956508593355
F-73.99778965995417
tp1276
sV90499852
p1277
(F39.93542248829061
F116.43442818833711
tp1278
sV55438629
p1279
(F41.8552750218451
F-87.62624816824952
tp1280
sV55375085
p1281
(F28.662830960597045
F77.21702906545069
tp1282
sV33987224
p1283
(F28.57814029621662
F77.18846243736274
tp1284
sV87200492
p1285
(F40.75965009586828
F-73.93669175429036
tp1286
sV30238640
p1287
(F28.604232541314378
F77.16922559432936
tp1288
sV74002191
p1289
(F41.90954593893332
F-87.62414495921229
tp1290
sV88175591
p1291
(F41.87867303639158
F-87.69165034741367
tp1292
sV01826432
p1293
(F28.65509714348108
F77.16318725742401
tp1294
sV33154817
p1295
(F41.89242550345093
F-87.66209978364387
tp1296
sV27836101
p1297
(F39.89003032884698
F116.40820980433705
tp1298
sV01522815
p1299
(F40.70562913731392
F-73.98203267150761
tp1300
sV81621675
p1301
(F40.7978824173441
F-73.9745892486917
tp1302
sV22491879
p1303
(F40.7652041015402
F-73.94280055650583
tp1304
sV66787129
p1305
(F41.86111607431409
F-87.66957543758308
tp1306
sV33527024
p1307
(F40.72307218039613
F-73.9469589356361
tp1308
sV77748966
p1309
(F28.59589349884001
F77.25302213543993
tp1310
sV06164898
p1311
(F40.71997569020177
F-74.00724517438938
tp1312
sV80848813
p1313
(F41.90174827228853
F-87.6530950009491
tp1314
sV83084607
p1315
(F48.83353476145865
F2.347952257352763
tp1316
sV26575506
p1317
(F39.88334526501824
F116.41698488163682
tp1318
sV57404394
p1319
(F48.90452060025714
F2.3315015911420485
tp1320
sV33569185
p1321
(F28.59790102790709
F77.17753176050411
tp1322
sV83024016
p1323
(F48.87640892786152
F2.3580784690202514
tp1324
sV02525969
p1325
(F40.76624658828088
F-74.01995480238608
tp1326
sV85470668
p1327
(F28.598056731728203
F77.16629047406589
tp1328
sV27892176
p1329
(F40.72285790457973
F-73.97598202716524
tp1330
sV62407281
p1331
(F41.883401691606515
F-87.67675917110472
tp1332
sV00017947
p1333
(F40.73740688455327
F-73.97166427209905
tp1334
sV61738027
p1335
(F48.898622496589724
F2.369048457339078
tp1336
sV95958316
p1337
(F40.72030673103993
F-74.00779311718249
tp1338
sV74314997
p1339
(F40.65327494716003
F-73.9117126610082
tp1340
sV10502297
p1341
(F48.837762361848085
F2.3308251736776704
tp1342
sV13964146
p1343
(F48.84247860411538
F2.342871887595181
tp1344
sV78518261
p1345
(F41.88215296512605
F-87.63407118291805
tp1346
sV39136640
p1347
(F48.830712842706745
F2.3457270444938403
tp1348
sV66750789
p1349
(F28.63008063238187
F77.21231805206584
tp1350
sV27965115
p1351
(F48.83053802541797
F2.305706668405635
tp1352
sV85249172
p1353
(F40.74493265681599
F-73.9983898709218
tp1354
sV07421853
p1355
(F40.68876934018412
F-73.96243401186065
tp1356
sV27606889
p1357
(F39.94449918488162
F116.45036177765304
tp1358
sV14087257
p1359
(F40.691302541908996
F-73.97919034004892
tp1360
sV17077378
p1361
(F41.889796969526394
F-87.60833805241312
tp1362
sV01229165
p1363
(F28.62633622457369
F77.23981710079197
tp1364
sV95404493
p1365
(F41.85547542878168
F-87.62693146913848
tp1366
sV82971557
p1367
(F48.831937284959665
F2.346263001209755
tp1368
sV89118733
p1369
(F40.67939943525023
F-73.95351275557665
tp1370
sV64983134
p1371
(F48.833966458158855
F2.316715505584495
tp1372
sV80061007
p1373
(F28.58725071075067
F77.23730218466824
tp1374
sV36766758
p1375
(F40.77277041755789
F-73.93422732794936
tp1376
sV53422040
p1377
(F39.94599226301939
F116.43938093619097
tp1378
sV20329242
p1379
(F40.716603510934334
F-73.99739831525592
tp1380
sV98291731
p1381
(F41.840845352032176
F-87.667493538914
tp1382
sV12971916
p1383
(F41.89843963862653
F-87.60909899811638
tp1384
sV01692792
p1385
(F39.92403110488652
F116.36377815589982
tp1386
sV73919605
p1387
(F28.63613876447211
F77.20917183997751
tp1388
sV69222399
p1389
(F40.74954845946029
F-73.99093342018553
tp1390
sV51509545
p1391
(F41.88013030348243
F-87.64096217586534
tp1392
sV14973222
p1393
(F41.89174340018503
F-87.62497712215409
tp1394
sV78135598
p1395
(F40.80870282610858
F-73.93658856009972
tp1396
sV09008250
p1397
(F41.874978711764285
F-87.68126358330264
tp1398
sV17047739
p1399
(F40.63704433454079
F-73.90952298975094
tp1400
sV71516318
p1401
(F48.89533300032428
F2.3891741375674074
tp1402
sV79327367
p1403
(F40.81057013582893
F-73.9706361872507
tp1404
sV77381675
p1405
(F40.72245467532626
F-73.95473636208396
tp1406
sV10500255
p1407
(F39.88660951387385
F116.42644669624966
tp1408
sV73958031
p1409
(F28.627172628359922
F77.25341369711185
tp1410
sV23929197
p1411
(F40.78782848101471
F-73.9581963707093
tp1412
sV29565511
p1413
(F40.72704782876452
F-73.99356449300612
tp1414
sV69781124
p1415
(F40.736661777334255
F-73.97743510395256
tp1416
sV35916161
p1417
(F40.67763513116023
F-73.953564673752
tp1418
sV39871084
p1419
(F39.86621520145928
F116.40901620863045
tp1420
sV85178533
p1421
(F41.86265375441014
F-87.62937953511025
tp1422
sV74982516
p1423
(F39.86576676037888
F116.4235511650087
tp1424
sV41954195
p1425
(F28.65479966967314
F77.22289768928746
tp1426
sV75706197
p1427
(F28.606292516840465
F77.25516440554833
tp1428
sV56658866
p1429
(F40.710549667175655
F-73.90915541675396
tp1430
sV41134474
p1431
(F40.647181326647456
F-73.9648907098754
tp1432
sV17672115
p1433
(F40.70359295152693
F-73.92803681980502
tp1434
sV34203088
p1435
(F28.628419924877186
F77.19445071171187
tp1436
sV90571978
p1437
(F48.896160292560666
F2.353686828223371
tp1438
sV69880988
p1439
(F40.63205420617299
F-73.94223762271945
tp1440
sV91433022
p1441
(F48.879253554072925
F2.304906193659235
tp1442
sV77663078
p1443
(F40.663435675596865
F-73.95099419095652
tp1444
sV78570641
p1445
(F40.76695138879637
F-73.99951751789388
tp1446
sV38515637
p1447
(F40.72237668082228
F-73.9450385253657
tp1448
sV41690697
p1449
(F40.62831057495288
F-73.93058007345269
tp1450
sV11454298
p1451
(F39.89469228624881
F116.36821539349823
tp1452
sV92685963
p1453
(F28.585702442084536
F77.24122259159634
tp1454
sV92390973
p1455
(F39.89387955184947
F116.39599891328197
tp1456
sV36845965
p1457
(F48.86633239973186
F2.401065275560797
tp1458
sV34166598
p1459
(F48.9004509875211
F2.3231089583392293
tp1460
sV08783479
p1461
(F40.67444726112114
F-73.89868853183951
tp1462
sV33472720
p1463
(F39.86525786405963
F116.39884297484984
tp1464
sV14638312
p1465
(F28.57876262211308
F77.24333769770675
tp1466
sV44709471
p1467
(F39.937204954907315
F116.36400459715738
tp1468
sV16540071
p1469
(F40.7801266394588
F-73.99966118091889
tp1470
sV20089672
p1471
(F28.603195008411955
F77.15999101382752
tp1472
sV12784196
p1473
(F41.85732724725654
F-87.69063727588556
tp1474
sV53356796
p1475
(F48.86295202510979
F2.3316312633129543
tp1476
sV07089688
p1477
(F40.74865053223928
F-74.0207257733725
tp1478
sV32097191
p1479
(F41.918769851580365
F-87.62185821882099
tp1480
sV99266691
p1481
(F41.90611797900554
F-87.67810879885609
tp1482
sV25505993
p1483
(F41.854750803033596
F-87.63512475243404
tp1484
sV77057341
p1485
(F48.846824696761175
F2.343155613950939
tp1486
sV87730227
p1487
(F48.870801885300835
F2.370622109280008
tp1488
sV52955457
p1489
(F41.8744164303588
F-87.68408214201186
tp1490
sV64599144
p1491
(F40.6366541027658
F-73.91117257229834
tp1492
sV15759603
p1493
(F48.88281742464763
F2.3349919523299594
tp1494
sV54904859
p1495
(F39.8670781789275
F116.41016328152214
tp1496
sV02146720
p1497
(F41.85686241100978
F-87.66255007102926
tp1498
sV33125138
p1499
(F40.778128506596815
F-73.93514405628699
tp1500
sV28672104
p1501
(F40.791167601014656
F-74.002435050814
tp1502
sV55042161
p1503
(F40.643197522485586
F-73.9138329089737
tp1504
sV81724444
p1505
(F41.84646708241852
F-87.6814176228804
tp1506
sV76474255
p1507
(F40.7010294469919
F-73.92282985140352
tp1508
sV03857588
p1509
(F39.859411095559906
F116.42702112055701
tp1510
sV70732405
p1511
(F40.72463188116073
F-73.94891967964224
tp1512
sV56900002
p1513
(F39.87457432553109
F116.38944600705334
tp1514
sV52389979
p1515
(F40.67473268666041
F-73.98803520281295
tp1516
sV39619334
p1517
(F41.89547924237458
F-87.61305819578308
tp1518
sV19461861
p1519
(F41.87290946542752
F-87.65364676589944
tp1520
sV53998484
p1521
(F39.87865532359772
F116.44057923691932
tp1522
sV75307127
p1523
(F40.6853265221386
F-73.96394532559411
tp1524
sV07538285
p1525
(F41.928235014012
F-87.68963018622344
tp1526
sV92989542
p1527
(F28.663184732465762
F77.24717950367878
tp1528
sV68299774
p1529
(F41.91076819284112
F-87.65563844922963
tp1530
sV99067168
p1531
(F40.81067771362747
F-74.00056966000862
tp1532
sV93613736
p1533
(F41.89583465033135
F-87.6594605765277
tp1534
sV97803881
p1535
(F41.839957418821776
F-87.60109493668962
tp1536
sV28933755
p1537
(F48.865920009070415
F2.3219632960761794
tp1538
sV32986921
p1539
(F48.86388154714193
F2.365611965109499
tp1540
sV67894673
p1541
(F41.84326987524822
F-87.67035792360272
tp1542
sV58935408
p1543
(F28.635226821644913
F77.21212557640284
tp1544
sV27006214
p1545
(F41.90522870093096
F-87.62506356257788
tp1546
sV81048755
p1547
(F40.808832419453594
F-74.0218079197072
tp1548
sV94916324
p1549
(F28.583488274100368
F77.2346250471335
tp1550
sV09005518
p1551
(F40.71245017918317
F-73.99338369186094
tp1552
sV41104552
p1553
(F28.57823024513478
F77.19986914903984
tp1554
sV67264704
p1555
(F28.611013468266336
F77.25661161888534
tp1556
sV67468249
p1557
(F40.635243179062506
F-73.93896535626207
tp1558
sV39360991
p1559
(F40.74093634484036
F-74.02182006449269
tp1560
sV79205757
p1561
(F40.738759721289426
F-73.96849772960572
tp1562
sV54886582
p1563
(F40.725394343481355
F-73.98531928988281
tp1564
sV41972717
p1565
(F39.86224570420874
F116.38183227524786
tp1566
sV28257257
p1567
(F40.7565211497475
F-74.00461150370303
tp1568
sV40527727
p1569
(F28.65361358892262
F77.22291110961164
tp1570
sV60003591
p1571
(F40.730561977782
F-74.00329299054164
tp1572
sV18630602
p1573
(F40.70727330087456
F-73.92547133513581
tp1574
sV80309635
p1575
(F41.928767710821184
F-87.61363004082288
tp1576
sV76311529
p1577
(F48.8606745314534
F2.3546539019843675
tp1578
sV53826060
p1579
(F41.89669844321788
F-87.59872881231054
tp1580
sV25133646
p1581
(F48.8315655242861
F2.3798509928923535
tp1582
sV16100022
p1583
(F28.65485869458154
F77.17237645467992
tp1584
sV61177116
p1585
(F40.75591872303352
F-74.01022389973647
tp1586
sV52386015
p1587
(F41.872583991609964
F-87.67193917376282
tp1588
sV23909601
p1589
(F28.60459118377486
F77.16391349508726
tp1590
sV30090446
p1591
(F40.810013100946335
F-73.99715581655978
tp1592
sV63845730
p1593
(F39.939212573874336
F116.3615662590119
tp1594
sV85725652
p1595
(F39.886690764951275
F116.37538697037142
tp1596
sV43050130
p1597
(F39.92242808966527
F116.4544017331811
tp1598
sV68044138
p1599
(F39.919361991828204
F116.38000975814012
tp1600
sV85162211
p1601
(F28.585030743685405
F77.17934353170773
tp1602
sV53131638
p1603
(F41.853510134412055
F-87.60346057047589
tp1604
sV32107852
p1605
(F41.90091710835147
F-87.63692351874091
tp1606
sV34348796
p1607
(F39.87022867536411
F116.42230048684401
tp1608
sV20153021
p1609
(F40.63077899995977
F-73.94543241572373
tp1610
sV13105617
p1611
(F28.658563593031985
F77.2094374656396
tp1612
sV29354870
p1613
(F40.67567061946647
F-73.92656598408193
tp1614
sV55517614
p1615
(F41.86984624188926
F-87.68186273491001
tp1616
sV33850221
p1617
(F39.85692162130433
F116.39846405182651
tp1618
sV23036628
p1619
(F40.75297037282276
F-73.97483549464947
tp1620
sV71842844
p1621
(F40.76652169121545
F-73.97085699357132
tp1622
sV59378266
p1623
(F48.813343161861255
F2.3884748850237796
tp1624
sV86650977
p1625
(F40.71806925201415
F-74.00046844966258
tp1626
sV63744347
p1627
(F48.84485768337595
F2.318919216142298
tp1628
sV36642472
p1629
(F40.63305299352466
F-73.98544184395588
tp1630
sV90047152
p1631
(F41.891562255787996
F-87.66938420138055
tp1632
sV62505833
p1633
(F28.64960270686905
F77.17302936217808
tp1634
sV44438586
p1635
(F28.589377086701393
F77.228073902457
tp1636
sV73744399
p1637
(F28.56963828665451
F77.16828366611308
tp1638
sV03445426
p1639
(F40.771005416042655
F-73.94997458748755
tp1640
sV31569514
p1641
(F28.565723466240282
F77.19522912376371
tp1642
sV64971520
p1643
(F48.816688285437515
F2.3677159777733263
tp1644
sV75936068
p1645
(F41.91634685139788
F-87.62859760852099
tp1646
sV12923939
p1647
(F40.781843862498114
F-73.96307860739128
tp1648
sV51522346
p1649
(F40.699731501599246
F-73.99329913024513
tp1650
sV61287600
p1651
(F41.85427765068358
F-87.67968825167003
tp1652
sV25359749
p1653
(F40.65645596760705
F-73.96065813339052
tp1654
sV05499175
p1655
(F48.90534114934468
F2.367099738318997
tp1656
sV16481534
p1657
(F28.65290153842751
F77.16141851483285
tp1658
sV89913543
p1659
(F40.72831029837367
F-74.01780028742574
tp1660
sV11289722
p1661
(F40.64315351099364
F-73.94875677166864
tp1662
sV70354232
p1663
(F39.94369601572703
F116.36787365695197
tp1664
sV42048886
p1665
(F40.670009419637275
F-73.95040225941904
tp1666
sV68796693
p1667
(F40.712561309288
F-74.02244683765524
tp1668
sV13482510
p1669
(F40.717454783347335
F-73.92745872192933
tp1670
sV56538205
p1671
(F28.575750860406842
F77.25365587887673
tp1672
sV45499753
p1673
(F39.9379796896182
F116.36166901328068
tp1674
sV02944319
p1675
(F40.73220545639994
F-73.979439767886
tp1676
sV45809125
p1677
(F39.927908938803554
F116.38706522014806
tp1678
sV37801793
p1679
(F40.728147021016134
F-74.02866158975537
tp1680
sV00882873
p1681
(F28.65483974849538
F77.19185004330596
tp1682
sV04311812
p1683
(F40.75108637466141
F-73.99101397756641
tp1684
sV93230285
p1685
(F41.84481325439006
F-87.6769584650473
tp1686
sV76692529
p1687
(F48.88648685297362
F2.341245753508528
tp1688
sV04925545
p1689
(F41.90208509556851
F-87.69499293817907
tp1690
sV99401061
p1691
(F39.944593267224015
F116.3582203174835
tp1692
sV90573255
p1693
(F40.6867401777975
F-73.94338296929422
tp1694
sV98851218
p1695
(F39.94534163568045
F116.39481856986946
tp1696
sV18633665
p1697
(F28.632774230873938
F77.24527834094613
tp1698
sV83011535
p1699
(F48.87224860664217
F2.3603131505912542
tp1700
sV62076692
p1701
(F39.92664550566754
F116.38803787253858
tp1702
sV35999201
p1703
(F39.92073215213775
F116.42591523095652
tp1704
sV13611682
p1705
(F28.58346156524813
F77.16848032254822
tp1706
sV29532247
p1707
(F48.89180876435983
F2.3324899506163015
tp1708
sV41880951
p1709
(F39.90163238862587
F116.36062029893279
tp1710
sV03362136
p1711
(F48.861200666489225
F2.334194293789366
tp1712
sV07066566
p1713
(F48.813163906260314
F2.396558740299155
tp1714
sV46864765
p1715
(F41.87063008428765
F-87.65449351011412
tp1716
sV50950362
p1717
(F41.86383334285271
F-87.65841710295969
tp1718
sV16113718
p1719
(F41.85508745517028
F-87.64368397175588
tp1720
sV05518043
p1721
(F40.6732948157287
F-73.93497487735361
tp1722
sV18790818
p1723
(F39.883598040107586
F116.39212013751524
tp1724
sV72083482
p1725
(F39.90371313765558
F116.4256966481645
tp1726
sV13767259
p1727
(F48.892207710479546
F2.332548704498333
tp1728
sV15351692
p1729
(F39.92957824108907
F116.38783483011304
tp1730
sV49197754
p1731
(F40.73560325815149
F-74.01166657871183
tp1732
sV24493482
p1733
(F41.85915117314671
F-87.67720264534572
tp1734
sV29372645
p1735
(F40.77634566811428
F-74.02493472273626
tp1736
sV86560429
p1737
(F40.685167804042386
F-73.9812921884888
tp1738
sV06482091
p1739
(F41.88210780058353
F-87.62388858289168
tp1740
sV18890648
p1741
(F40.73982564317842
F-73.97715143543141
tp1742
sV31668330
p1743
(F28.611057614196252
F77.17907731198767
tp1744
sV51628895
p1745
(F40.701979806069325
F-73.89484586291628
tp1746
sV36962785
p1747
(F41.85269361819209
F-87.66270327377033
tp1748
sV67010783
p1749
(F48.828419281137656
F2.346192526635645
tp1750
sV20418823
p1751
(F41.83330192038182
F-87.60003834799963
tp1752
sV72191781
p1753
(F40.64647644190025
F-73.93723934191428
tp1754
sV98670390
p1755
(F48.829415754896324
F2.339989002444332
tp1756
sV98875658
p1757
(F40.6377415675343
F-73.94057641318905
tp1758
sV13071592
p1759
(F39.920971099581784
F116.45500742547577
tp1760
sV88057378
p1761
(F40.716502733947785
F-73.98978744618505
tp1762
sV56034691
p1763
(F40.72215307873918
F-74.02739725905133
tp1764
sV33459417
p1765
(F28.653979033471924
F77.19649149008421
tp1766
sV13755379
p1767
(F41.89676426556801
F-87.64110460133779
tp1768
sV82597054
p1769
(F40.705611760848214
F-73.9383962249689
tp1770
sV60951991
p1771
(F48.81126806272359
F2.3402043120410574
tp1772
sV53400147
p1773
(F40.78959876596826
F-74.00251424281858
tp1774
sV51892739
p1775
(F40.692824147079094
F-73.90692849059879
tp1776
sV61689305
p1777
(F48.84963396715172
F2.3422272234500703
tp1778
sV60297860
p1779
(F41.83790819196698
F-87.60824004285551
tp1780
sV12985777
p1781
(F40.68437036377712
F-73.95663050953657
tp1782
sV02619354
p1783
(F40.70920556592563
F-73.98352173502235
tp1784
sV46768650
p1785
(F48.88902552396802
F2.365466829623259
tp1786
sV53714596
p1787
(F41.93047955248607
F-87.64630466746138
tp1788
sV61617957
p1789
(F40.75910660495405
F-74.01551411246113
tp1790
sV92219144
p1791
(F41.85332190352874
F-87.66718861600754
tp1792
sV61348745
p1793
(F28.63516250830769
F77.2463218067694
tp1794
sV24281485
p1795
(F40.7376859774242
F-74.02524793143029
tp1796
sV38953736
p1797
(F48.82080149323043
F2.358983234805066
tp1798
sV62399500
p1799
(F40.74222157767958
F-73.94883723851582
tp1800
sV63632002
p1801
(F48.839373329429804
F2.3148186470725696
tp1802
sV12250868
p1803
(F40.66420034668879
F-73.94195654223967
tp1804
sV82460969
p1805
(F41.87187919159506
F-87.63358959712475
tp1806
sV63798135
p1807
(F40.726661036879456
F-73.96635095184945
tp1808
sV61049499
p1809
(F39.93135331404202
F116.40326203926368
tp1810
sV67141746
p1811
(F40.711614829173364
F-73.89612893656737
tp1812
sV04761297
p1813
(F28.579317578007107
F77.17613099260737
tp1814
sV66670957
p1815
(F28.634133934029435
F77.16571453934684
tp1816
sV94507645
p1817
(F39.94732671625374
F116.4353573681033
tp1818
sV97604808
p1819
(F41.83492043717106
F-87.63686785147274
tp1820
sV41478301
p1821
(F28.639616527444826
F77.17026475153176
tp1822
sV96628461
p1823
(F40.720558795620995
F-73.93914444159977
tp1824
sV29071210
p1825
(F40.656904180544664
F-73.97889504681999
tp1826
sV92661806
p1827
(F40.70577506271598
F-73.90627972706805
tp1828
sV59551539
p1829
(F28.641107039496166
F77.22615527167211
tp1830
sV16968301
p1831
(F39.89201982114972
F116.40561389054966
tp1832
sV50817252
p1833
(F48.87893525120619
F2.3345971802952867
tp1834
sV34732311
p1835
(F41.90753490536896
F-87.6070296427023
tp1836
sV75832285
p1837
(F28.66132090436301
F77.22740487363224
tp1838
sV48232623
p1839
(F40.69375141615297
F-73.93133758998026
tp1840
sV87582949
p1841
(F40.713876424244
F-73.98835548376458
tp1842
sV03676950
p1843
(F39.88164154637268
F116.3854070917833
tp1844
sV55456111
p1845
(F40.75548178895257
F-74.0023490469802
tp1846
sV75928643
p1847
(F40.711973471873904
F-74.00555647836974
tp1848
sV46325495
p1849
(F48.814359001960305
F2.3682001420009158
tp1850
sV35020165
p1851
(F40.74061669518499
F-73.97692010261873
tp1852
sV33900797
p1853
(F40.77980561506112
F-73.99356186579925
tp1854
sV21136832
p1855
(F48.815907179128565
F2.3041430531805407
tp1856
sV60398642
p1857
(F41.90580886924166
F-87.60785032653746
tp1858
sV95313573
p1859
(F41.884391631354355
F-87.68441132102646
tp1860
sV59334217
p1861
(F39.87976444806833
F116.35894927677828
tp1862
sV44566258
p1863
(F39.90849611749284
F116.37168017476958
tp1864
sV85259690
p1865
(F48.847953394633684
F2.3879813071687463
tp1866
sV96430170
p1867
(F41.914221789894576
F-87.65934145313567
tp1868
sV45869037
p1869
(F40.72413008696121
F-73.93074471048061
tp1870
sV68925154
p1871
(F40.74933822874092
F-73.94480985511993
tp1872
sV71375816
p1873
(F41.927057660023166
F-87.69316249861522
tp1874
sV16577985
p1875
(F41.88661596935803
F-87.60762974050925
tp1876
sV70867343
p1877
(F41.92788255012229
F-87.63817759701556
tp1878
sV24127301
p1879
(F28.61086204001098
F77.2491548324693
tp1880
sV00204941
p1881
(F40.79389811417977
F-73.96791171758822
tp1882
sV99251819
p1883
(F28.641898872057528
F77.23949518568628
tp1884
sV03512838
p1885
(F39.887647042213054
F116.39687213598164
tp1886
sV79742672
p1887
(F40.79390057756957
F-73.94409415666641
tp1888
sV72965139
p1889
(F40.64742288373026
F-73.97106575770785
tp1890
sV96488164
p1891
(F40.726368034835936
F-73.9197419940132
tp1892
sV42764793
p1893
(F39.85949534771583
F116.42298053633725
tp1894
sV00278812
p1895
(F40.76421669755804
F-73.96407566600736
tp1896
sV27095676
p1897
(F41.86417714788411
F-87.65536544765017
tp1898
sV46943484
p1899
(F40.78874927797186
F-73.98542197906792
tp1900
sV62294867
p1901
(F40.7562545447671
F-73.99287991271558
tp1902
sV17577533
p1903
(F28.622709483918943
F77.24867075956989
tp1904
sV62790642
p1905
(F39.9204723634991
F116.43590390284307
tp1906
sV65952122
p1907
(F48.864988844497674
F2.3628370279211293
tp1908
sV32978971
p1909
(F40.75676998172225
F-73.97884577102478
tp1910
sV85345713
p1911
(F28.648678163029647
F77.24675845258743
tp1912
sV01576573
p1913
(F48.87149234699157
F2.342685085865314
tp1914
sV24263429
p1915
(F41.92353384408286
F-87.68467602231723
tp1916
sV91453655
p1917
(F28.595378095988217
F77.18028203621384
tp1918
sV05563197
p1919
(F39.87122715265458
F116.45191182718168
tp1920
sV09041318
p1921
(F40.69577240267804
F-73.94930496485416
tp1922
sV49866803
p1923
(F40.64284409214788
F-73.99103935021515
tp1924
sV63109559
p1925
(F48.84485547032057
F2.3917315554472993
tp1926
sV55210546
p1927
(F40.76713226958489
F-73.98135553078625
tp1928
sV19429908
p1929
(F48.886474319438655
F2.3933359499339995
tp1930
sV51054106
p1931
(F28.603407149922575
F77.23987622041189
tp1932
sV41627075
p1933
(F39.95325269096687
F116.37421530280596
tp1934
sV88209708
p1935
(F40.65795504017801
F-73.90138459952665
tp1936
sV93636360
p1937
(F41.90299830646662
F-87.6383731020925
tp1938
sV18656190
p1939
(F40.73304886737844
F-73.97790225455967
tp1940
sV19934396
p1941
(F40.79689925097115
F-73.99588094712094
tp1942
sV01552560
p1943
(F41.86675546209143
F-87.65952605710888
tp1944
sV78163034
p1945
(F48.8452155372254
F2.392751740687706
tp1946
sV65077719
p1947
(F40.63888649583578
F-73.96058047626495
tp1948
sV82877750
p1949
(F28.63209790732178
F77.18161287537724
tp1950
sV07039713
p1951
(F28.603400123100545
F77.21520659641007
tp1952
sV61490086
p1953
(F39.90265152672122
F116.42748527672148
tp1954
sV78670686
p1955
(F41.877152655886825
F-87.6349208484907
tp1956
sV64450339
p1957
(F39.95274698522475
F116.40366072993068
tp1958
sV99235512
p1959
(F48.82941219520757
F2.3314574492826843
tp1960
sV78133822
p1961
(F39.926215975074435
F116.41577989540477
tp1962
sV03388013
p1963
(F28.629361821919602
F77.16679282935701
tp1964
sV52253621
p1965
(F40.68499745278307
F-73.97703407454355
tp1966
sV47464834
p1967
(F28.642420475180987
F77.22620339750155
tp1968
sV95066851
p1969
(F40.738364057385944
F-74.00273831724154
tp1970
sV88299617
p1971
(F39.934719514602
F116.37920110708649
tp1972
sV75986742
p1973
(F41.92174219256529
F-87.67164205659633
tp1974
sV59031482
p1975
(F39.95254456604938
F116.45258648113685
tp1976
sV24565684
p1977
(F40.64867919093778
F-73.96691632006393
tp1978
sV38529689
p1979
(F39.952494456844306
F116.371121885386
tp1980
sV95989228
p1981
(F41.9243880535657
F-87.64788751304107
tp1982
sV74642373
p1983
(F48.851622657466756
F2.3378891959295975
tp1984
sV89794814
p1985
(F28.617058570525778
F77.16903333405841
tp1986
sV07209093
p1987
(F48.84941754116483
F2.3832344833193213
tp1988
sV40332659
p1989
(F40.796647757358414
F-73.97106025499353
tp1990
sV79882873
p1991
(F39.869312207909566
F116.44999026055692
tp1992
sV37243296
p1993
(F40.69072003120371
F-73.96867558242023
tp1994
sV23407619
p1995
(F40.719806318327535
F-73.95084058766666
tp1996
sV06745110
p1997
(F41.865521060951934
F-87.6600549778587
tp1998
sV77935281
p1999
(F28.567408675522298
F77.21578146248511
tp2000
s.