(dp0
V59766537
p1
(F39.925895574777535
F116.38147430588727
tp2
sV06680275
p3
(F41.94371086236881
F-87.61462768720625
tp4
sV36921416
p5
(F40.81649559835137
F-73.9327551723047
tp6
sV53124623
p7
(F39.82840420332492
F116.43449297152152
tp8
sV60706744
p9
(F28.602282503545133
F77.12556279429475
tp10
sV33986326
p11
(F48.88155739740331
F2.327890217522224
tp12
sV15301451
p13
(F40.687747594416194
F-73.94075858452173
tp14
sV26338958
p15
(F48.876941528153395
F2.4188239969714345
tp16
sV62071055
p17
(F40.77751174642326
F-73.93598094613276
tp18
sV31743471
p19
(F40.64013308468263
F-73.92773438966738
tp20
sV19015804
p21
(F41.81649127545787
F-87.5874743245271
tp22
sV96985021
p23
(F40.733379528304575
F-74.00094027044085
tp24
sV24800327
p25
(F28.556730004475444
F77.18915873644549
tp26
sV75673147
p27
(F40.66302991802696
F-73.98383548678372
tp28
sV41646861
p29
(F28.570791634416445
F77.26166873012825
tp30
sV35104087
p31
(F41.812369216200025
F-87.58631680200008
tp32
sV85056725
p33
(F48.88113723885906
F2.39880699509209
tp34
sV15369864
p35
(F41.86651223402089
F-87.69684767953598
tp36
sV15416568
p37
(F41.86902475690701
F-87.63897297394965
tp38
sV13889685
p39
(F28.676997061694475
F77.26167434535952
tp40
sV11040699
p41
(F39.92130549300258
F116.37746286385052
tp42
sV59168812
p43
(F28.630182286496083
F77.17509996247014
tp44
sV90754395
p45
(F41.881326992046866
F-87.59568167395507
tp46
sV44938666
p47
(F28.600257593594062
F77.21143512326793
tp48
sV33148885
p49
(F40.738740274137214
F-73.91046630619232
tp50
sV46405678
p51
(F40.72386589322052
F-73.91952454794209
tp52
sV83645273
p53
(F48.89909870919566
F2.356570744932658
tp54
sV27787939
p55
(F48.7777430168139
F2.3471855101395533
tp56
sV69405198
p57
(F39.865547098281255
F116.41975422428732
tp58
sV74760930
p59
(F39.91058972035307
F116.47792970669715
tp60
sV46847829
p61
(F41.958086139467824
F-87.63669302017597
tp62
sV58981016
p63
(F40.6384769007684
F-73.9718388203661
tp64
sV77292230
p65
(F28.570513830754688
F77.18548959899888
tp66
sV21619625
p67
(F40.59171261317048
F-73.86218841487337
tp68
sV49035551
p69
(F40.70559837836469
F-73.86215572814685
tp70
sV31655989
p71
(F41.90062629828414
F-87.70933487642233
tp72
sV75151867
p73
(F28.561088699669067
F77.19567397471428
tp74
sV48499873
p75
(F48.82068894055792
F2.2777106768100697
tp76
sV15554390
p77
(F40.62046252008345
F-73.86882757889062
tp78
sV95584393
p79
(F28.590876877447595
F77.12372664268348
tp80
sV49334746
p81
(F48.92874269885962
F2.316937826584014
tp82
sV19572260
p83
(F41.805906238012206
F-87.6729545852776
tp84
sV46217660
p85
(F48.924782352211835
F2.377810520249587
tp86
sV83501746
p87
(F48.870349096458845
F2.3338576807247753
tp88
sV02350172
p89
(F41.82419955805605
F-87.63994534806797
tp90
sV64662695
p91
(F41.940826065665114
F-87.63623973599064
tp92
sV42116073
p93
(F40.71746643876813
F-73.89777574210768
tp94
sV95827391
p95
(F48.9254689419077
F2.3696054577684706
tp96
sV71999296
p97
(F40.59429904911308
F-73.91963859068505
tp98
sV89472163
p99
(F28.586054850317776
F77.15051266843722
tp100
sV02152318
p101
(F40.64251054279974
F-73.90205168387374
tp102
sV70017557
p103
(F48.825531811098976
F2.4000057166440527
tp104
sV39124487
p105
(F48.81287141261033
F2.350383681051826
tp106
sV87872811
p107
(F39.96383112494478
F116.33757697416532
tp108
sV31821872
p109
(F40.70994287584651
F-73.99233097726948
tp110
sV62674416
p111
(F40.81818213580137
F-73.89313821211972
tp112
sV76516658
p113
(F40.667311045295904
F-73.88893600611843
tp114
sV58740057
p115
(F40.74252736771383
F-73.88589466971898
tp116
sV73121725
p117
(F40.68630694684023
F-73.94581655672964
tp118
sV44193386
p119
(F28.542574609084646
F77.12529477323041
tp120
sV54605374
p121
(F28.674145707874843
F77.25759429134456
tp122
sV45290329
p123
(F39.87421094356923
F116.32647918593385
tp124
sV52645792
p125
(F40.70550406715222
F-73.94558854561242
tp126
sV26482293
p127
(F28.611137312568992
F77.14262797814247
tp128
sV86553414
p129
(F40.622771609157645
F-73.95070356588322
tp130
sV04979067
p131
(F40.728804780989414
F-73.89314927310294
tp132
sV78420205
p133
(F41.91778234170426
F-87.64302982401675
tp134
sV37340452
p135
(F40.78285686375661
F-73.99794649117163
tp136
sV68793302
p137
(F40.83496354506429
F-74.03283147442086
tp138
sV80582762
p139
(F48.81580534696089
F2.4161173555247846
tp140
sV80557388
p141
(F28.61768231363731
F77.14886981287952
tp142
sV91406125
p143
(F28.632631878438037
F77.19863626345159
tp144
sV44512897
p145
(F40.773497826762735
F-73.931343983819
tp146
sV59625452
p147
(F48.880374710105535
F2.408108459775736
tp148
sV86334211
p149
(F40.71137760133802
F-73.87349076296046
tp150
sV66982258
p151
(F48.78685817790571
F2.4206655543367965
tp152
sV61761209
p153
(F41.81725574532445
F-87.58572118001797
tp154
sV52721182
p155
(F40.735974794570424
F-74.02492813044817
tp156
sV68706029
p157
(F40.724866254860295
F-73.96986220814465
tp158
sV36738052
p159
(F48.8796340450498
F2.340602453201717
tp160
sV53620743
p161
(F40.74865377516288
F-73.89678793883319
tp162
sV18716689
p163
(F41.93798957142647
F-87.70823617022549
tp164
sV40118727
p165
(F28.59236241124657
F77.18277238113085
tp166
sV69310249
p167
(F40.802246884775585
F-74.0400709793254
tp168
sV61234925
p169
(F28.658220947500876
F77.27093609906636
tp170
sV15857170
p171
(F48.89415615158679
F2.34198983282514
tp172
sV36679355
p173
(F48.92256838544943
F2.3213885723039014
tp174
sV37426699
p175
(F40.59728957110206
F-73.8603612117579
tp176
sV76514388
p177
(F40.627696016206336
F-73.98136193810689
tp178
sV38116919
p179
(F48.81878065806921
F2.2844016701556624
tp180
sV93990271
p181
(F39.92780056705107
F116.39531137498714
tp182
sV23063891
p183
(F40.81909036777486
F-74.02144751067924
tp184
sV33712239
p185
(F40.64023631553972
F-73.99181124069872
tp186
sV07559020
p187
(F39.82647490484924
F116.47140944616679
tp188
sV10883914
p189
(F48.86107322263755
F2.302486073701999
tp190
sV01212297
p191
(F40.70762039647972
F-74.04682228332092
tp192
sV65964132
p193
(F28.674450498789074
F77.15567534534803
tp194
sV05809202
p195
(F28.675256401976146
F77.27482686291708
tp196
sV16053496
p197
(F48.77182912902813
F2.310851490602806
tp198
sV41067826
p199
(F39.831083101394505
F116.43807160401566
tp200
sV78436190
p201
(F40.70073797297379
F-73.89659305051703
tp202
sV90047640
p203
(F39.94703947755945
F116.42906787067099
tp204
sV85930551
p205
(F40.696310102678
F-73.99921299399065
tp206
sV50308057
p207
(F39.96413757881075
F116.42157624893805
tp208
sV80571674
p209
(F48.9264734414421
F2.3120857414684606
tp210
sV33304533
p211
(F41.8021327794469
F-87.67500510352164
tp212
sV74574469
p213
(F39.83683211231397
F116.42300466799509
tp214
sV42296911
p215
(F40.72003977787829
F-73.91095769585401
tp216
sV90326486
p217
(F41.88028581647982
F-87.6952302682988
tp218
sV76738876
p219
(F40.6326421025615
F-73.96274736520346
tp220
sV39757975
p221
(F28.600683016289786
F77.12816101714697
tp222
sV19121024
p223
(F40.80443395109118
F-73.89567667796024
tp224
sV47492608
p225
(F39.866198142969736
F116.4005600304103
tp226
sV63046106
p227
(F40.727933123856495
F-74.0161362909256
tp228
sV44588526
p229
(F40.66622118214187
F-74.0118306286761
tp230
sV01287677
p231
(F39.96998683527633
F116.37369111538504
tp232
sV56108941
p233
(F40.69988881630047
F-73.96366707099294
tp234
sV38388927
p235
(F40.61201520410907
F-73.87074577589617
tp236
sV21859014
p237
(F40.68689814124045
F-73.86303940428938
tp238
sV40808048
p239
(F48.863166266976286
F2.326736398004467
tp240
sV72595947
p241
(F41.86247433394519
F-87.59767934398039
tp242
sV13103514
p243
(F41.81303834573551
F-87.60772689447343
tp244
sV88515748
p245
(F40.715070983832
F-73.867280739575
tp246
sV18445879
p247
(F28.66717597710877
F77.26675576059417
tp248
sV67450817
p249
(F48.77391374305122
F2.4195892653688897
tp250
sV73616191
p251
(F28.681272988056026
F77.12147793482228
tp252
sV86793711
p253
(F41.81570588399625
F-87.58949993072144
tp254
sV12230419
p255
(F40.61413249929532
F-73.86889376416639
tp256
sV88413105
p257
(F28.607669654339386
F77.14424492400218
tp258
sV20771737
p259
(F41.93235100869511
F-87.70973377724812
tp260
sV25334319
p261
(F28.53241509644481
F77.12645297899324
tp262
sV36773121
p263
(F28.667240579855648
F77.15790636338947
tp264
sV65394786
p265
(F48.91081852991229
F2.330681957686878
tp266
sV38619830
p267
(F40.72654513347145
F-73.99330859804493
tp268
sV79005418
p269
(F41.81400522111691
F-87.64211591611267
tp270
sV17701198
p271
(F39.83224310160768
F116.44629877544041
tp272
sV09898424
p273
(F39.827072196934424
F116.37181529118706
tp274
sV43470563
p275
(F48.792588873866116
F2.3195148811185544
tp276
sV81112067
p277
(F39.969573301883585
F116.38167626055312
tp278
sV57545547
p279
(F39.88657417621436
F116.45253432352567
tp280
sV08126917
p281
(F48.83450455520344
F2.279082443709703
tp282
sV02408187
p283
(F28.672153892891284
F77.17221826495576
tp284
sV50716203
p285
(F39.83346133720176
F116.43151708553546
tp286
sV96501955
p287
(F40.6947970090692
F-73.99142382117199
tp288
sV06512446
p289
(F48.91672990040218
F2.3484011409321006
tp290
sV29411627
p291
(F39.82488303724048
F116.37964047604243
tp292
sV32717303
p293
(F39.9363646703468
F116.4343328843874
tp294
sV73562924
p295
(F40.66505326116826
F-73.95024858363553
tp296
sV47360181
p297
(F41.954529543113864
F-87.5682391382476
tp298
sV43337538
p299
(F40.69705082792703
F-74.0341118465749
tp300
sV18796452
p301
(F40.75529392102788
F-73.95887517330573
tp302
sV71116792
p303
(F40.83619354277483
F-74.0314022789507
tp304
sV92535688
p305
(F48.77101253652617
F2.2950521571182487
tp306
sV51949280
p307
(F40.83527041210157
F-73.99158534278796
tp308
sV23962538
p309
(F40.69401156975776
F-73.88617798555985
tp310
sV03207468
p311
(F39.855028803927254
F116.4113439251426
tp312
sV68775643
p313
(F48.81716987907375
F2.3764374182230763
tp314
sV38889769
p315
(F40.75742205400071
F-73.98937826363023
tp316
sV99590628
p317
(F40.64187943867149
F-73.98998352572326
tp318
sV49652543
p319
(F41.863258533440046
F-87.65764697584771
tp320
sV27917701
p321
(F48.87345128036973
F2.3555386586364175
tp322
sV21793264
p323
(F41.911417781261434
F-87.67250347450573
tp324
sV83874109
p325
(F41.837984309306
F-87.68006471232736
tp326
sV52075407
p327
(F41.9283995672851
F-87.70998308990039
tp328
sV02778945
p329
(F28.68052819211182
F77.222571871672
tp330
sV25818567
p331
(F39.875945069425505
F116.44181846191941
tp332
sV95962078
p333
(F48.896932602636916
F2.3374844038967466
tp334
sV95557403
p335
(F28.54031750269571
F77.23174290719855
tp336
sV39612625
p337
(F28.604657761505795
F77.26878124798249
tp338
sV84155986
p339
(F28.59018434738544
F77.1384727680087
tp340
sV75621889
p341
(F48.91196216292399
F2.4246200822601014
tp342
sV52583339
p343
(F39.93201100327516
F116.46542274651844
tp344
sV23139794
p345
(F40.73970793339911
F-74.01806977611884
tp346
sV09516830
p347
(F48.85590262321859
F2.314828061157651
tp348
sV35261988
p349
(F41.838096292358706
F-87.68451738651335
tp350
sV12077977
p351
(F48.8821525431489
F2.3071410389267646
tp352
sV43262472
p353
(F28.59920476609941
F77.17627701969138
tp354
sV76550973
p355
(F40.735612946497696
F-73.96441149866496
tp356
sV50027040
p357
(F40.66673446444291
F-73.94671339460913
tp358
sV92960411
p359
(F28.536839169524292
F77.26811125087575
tp360
sV47838079
p361
(F39.863370002991516
F116.38980509735843
tp362
sV93168984
p363
(F48.786870503081595
F2.3844850831261057
tp364
sV06698430
p365
(F41.88204961729798
F-87.6663725263
tp366
sV63942217
p367
(F41.94235408260773
F-87.6161268400442
tp368
sV72946534
p369
(F41.8431784127499
F-87.69189519586477
tp370
sV79242219
p371
(F48.8418891354528
F2.4130955999143024
tp372
sV03806982
p373
(F41.88464867774046
F-87.63755308464803
tp374
sV29882663
p375
(F40.82429742278055
F-73.91342562593557
tp376
sV85927971
p377
(F40.83339611585084
F-73.93331270174178
tp378
sV12262717
p379
(F39.84683760611927
F116.37035500787452
tp380
sV24995054
p381
(F41.95813010406039
F-87.59597866845517
tp382
sV87361537
p383
(F28.63047357503574
F77.14914154314809
tp384
sV81050918
p385
(F40.73681584132167
F-74.03918371715147
tp386
sV39475763
p387
(F40.832979150402565
F-73.96194291872071
tp388
sV96892497
p389
(F28.65263625040022
F77.23630149801922
tp390
sV05603442
p391
(F48.89062465763841
F2.292906286769364
tp392
sV69062803
p393
(F48.891472102130756
F2.3601560761370792
tp394
sV02996189
p395
(F41.84157358638305
F-87.70696713387534
tp396
sV68523329
p397
(F48.85027228943355
F2.4138811541082017
tp398
sV47513242
p399
(F40.64404136900281
F-73.89891836258137
tp400
sV76967702
p401
(F40.69824328394594
F-73.94536285910264
tp402
sV17494229
p403
(F39.934102431626926
F116.45123746240637
tp404
sV56208702
p405
(F48.79974470753505
F2.3019927422439546
tp406
sV54229600
p407
(F41.820232434642506
F-87.56397184372041
tp408
sV25105209
p409
(F41.83996098396635
F-87.70114524489836
tp410
sV93560610
p411
(F41.85067528669876
F-87.62707647293067
tp412
sV36036820
p413
(F40.74253245734183
F-73.89989157620889
tp414
sV95081571
p415
(F48.78161768542516
F2.3155709791304835
tp416
sV54916692
p417
(F41.890108231259596
F-87.58984426783974
tp418
sV98234707
p419
(F28.54835467969575
F77.14452753357781
tp420
sV26854830
p421
(F40.802809028855314
F-73.93491300712265
tp422
sV42656036
p423
(F40.685979816981096
F-73.92785290545483
tp424
sV71379043
p425
(F28.625795100899477
F77.2384442119208
tp426
sV21647277
p427
(F40.74938217414063
F-73.89479002071994
tp428
sV13528041
p429
(F48.92695455682283
F2.3649474703123934
tp430
sV90445699
p431
(F28.584278797280337
F77.25038385100306
tp432
sV17943918
p433
(F48.86390680940023
F2.4201893664027363
tp434
sV63396164
p435
(F39.956643273660426
F116.40345396393565
tp436
sV70326666
p437
(F40.76507767516386
F-73.90850185809151
tp438
sV94674972
p439
(F39.92609844058473
F116.3538019203306
tp440
sV35039570
p441
(F28.62887380574658
F77.21559271366786
tp442
sV93142533
p443
(F41.956351403668165
F-87.61289529939972
tp444
sV24042048
p445
(F40.69388940276357
F-73.99458136093978
tp446
sV46379719
p447
(F41.850435913712616
F-87.60118229212387
tp448
sV27214107
p449
(F41.92663481785451
F-87.65217728464667
tp450
sV25866605
p451
(F41.840416575856395
F-87.58073443671414
tp452
sV93364126
p453
(F40.72581728521626
F-73.86517773333996
tp454
sV68776640
p455
(F41.93714879425767
F-87.67498301740646
tp456
sV84053800
p457
(F39.95440837627699
F116.45276947858315
tp458
sV57046792
p459
(F41.82203235597862
F-87.68132405606528
tp460
sV48696234
p461
(F28.543840185358707
F77.26938286982764
tp462
sV33237763
p463
(F28.62325707842107
F77.26716327328934
tp464
sV35410577
p465
(F40.77063464527125
F-74.04938008539071
tp466
sV16540873
p467
(F48.86292429882519
F2.392322408764734
tp468
sV78152045
p469
(F48.81802721811035
F2.2806573931706517
tp470
sV12994588
p471
(F39.879143356164604
F116.41372689566728
tp472
sV87369205
p473
(F41.893642908143526
F-87.68871179143102
tp474
sV06740542
p475
(F28.642984285535984
F77.21464744999649
tp476
sV36954285
p477
(F28.578827127074995
F77.23801314436146
tp478
sV45602016
p479
(F40.809345819752025
F-73.8955450488411
tp480
sV91185211
p481
(F40.742153044208095
F-74.02904764943288
tp482
sV95348780
p483
(F41.851081252270106
F-87.57729064625579
tp484
sV01560411
p485
(F41.804514542468866
F-87.70388320364825
tp486
sV72852620
p487
(F40.76967515875187
F-73.89760472288705
tp488
sV91683762
p489
(F28.607741648141218
F77.18713604022064
tp490
sV54699922
p491
(F48.80568670162602
F2.3363032327025337
tp492
sV46434227
p493
(F28.677679756305675
F77.1855878650097
tp494
sV66655695
p495
(F40.713440950418786
F-73.9504114738054
tp496
sV04645702
p497
(F41.81477687136273
F-87.64752560411979
tp498
sV20068486
p499
(F28.586437932194276
F77.19749245239944
tp500
sV93710350
p501
(F39.89662834954419
F116.46997206048952
tp502
sV22873460
p503
(F28.57168183704349
F77.20037562189562
tp504
sV49333282
p505
(F41.88739373378978
F-87.62901698041205
tp506
sV09044609
p507
(F40.7529215096824
F-74.0287108330413
tp508
sV84111081
p509
(F40.76993376906011
F-74.02351094054333
tp510
sV98561704
p511
(F48.78076453575322
F2.273958995169877
tp512
sV44378738
p513
(F39.826889123066536
F116.35695722854469
tp514
sV25291469
p515
(F28.68036644836666
F77.23878216642751
tp516
sV83745348
p517
(F39.856659665179215
F116.39935709548753
tp518
sV45841033
p519
(F39.94082125642503
F116.43800662001938
tp520
sV51347192
p521
(F39.93484173464099
F116.36385543606166
tp522
sV28665298
p523
(F41.824447957671836
F-87.61017333733554
tp524
sV33342757
p525
(F40.72893394074765
F-73.89050186763492
tp526
sV85040885
p527
(F40.69430988892216
F-73.89151579372503
tp528
sV46379498
p529
(F39.82171065356829
F116.47700501282125
tp530
sV90866548
p531
(F41.94125213180265
F-87.66791089445496
tp532
sV27328729
p533
(F41.89923855194136
F-87.62168545984704
tp534
sV28386117
p535
(F28.58585458527927
F77.2577447936975
tp536
sV49980172
p537
(F40.60613693829261
F-73.87889694498729
tp538
sV06093211
p539
(F40.750998932148136
F-74.03185287709432
tp540
sV76332678
p541
(F40.67570780174593
F-73.90475287077888
tp542
sV46885548
p543
(F48.78150105609925
F2.3685374172176648
tp544
sV89773772
p545
(F41.81479417241804
F-87.64653717981662
tp546
sV52078354
p547
(F40.63260298989126
F-74.01583598838262
tp548
sV59483441
p549
(F40.70558184542673
F-73.99656663236847
tp550
sV56364569
p551
(F48.84216008069599
F2.2847640623003906
tp552
sV40737836
p553
(F39.825533488430096
F116.39634386497067
tp554
sV65573167
p555
(F40.64383504130659
F-73.87626875703396
tp556
sV45746895
p557
(F41.88800692577807
F-87.69413001396373
tp558
sV08285751
p559
(F41.906871713227346
F-87.6804056757988
tp560
sV52917776
p561
(F40.70149316758941
F-74.01685186861398
tp562
sV77976895
p563
(F40.6924416732851
F-73.90689436767946
tp564
sV46004697
p565
(F28.631012803999905
F77.26188118370774
tp566
sV96249147
p567
(F40.70717546533275
F-73.9563553782633
tp568
sV68556891
p569
(F41.91421253591463
F-87.68659970344709
tp570
sV65615980
p571
(F28.629412757116437
F77.24113465312334
tp572
sV34512616
p573
(F40.61772732583218
F-73.95674562944558
tp574
sV16079809
p575
(F39.91817888448166
F116.36849528916696
tp576
sV78154681
p577
(F41.868818471946675
F-87.59999205203935
tp578
sV14803062
p579
(F48.812912600589534
F2.4110229475924476
tp580
sV25838817
p581
(F40.7142951947987
F-73.88882319033979
tp582
sV60366764
p583
(F40.70265823150022
F-73.94399905502719
tp584
sV46742391
p585
(F39.84543714749103
F116.45319406279728
tp586
sV60589200
p587
(F41.86549883654972
F-87.7051189466665
tp588
sV34032107
p589
(F39.867971839623884
F116.34632648127688
tp590
sV16845886
p591
(F40.71030226401095
F-73.92933424101571
tp592
sV26234083
p593
(F48.88167631969608
F2.288921983930664
tp594
sV08937957
p595
(F48.8956464421323
F2.402881422640776
tp596
sV19807010
p597
(F41.90417335931721
F-87.61912511137946
tp598
sV88802022
p599
(F39.82405066237508
F116.41866156372373
tp600
sV41527948
p601
(F48.79825345858953
F2.32196116086771
tp602
sV78270558
p603
(F39.932176192660485
F116.3338453644632
tp604
sV65290804
p605
(F28.640438248915437
F77.15097495169586
tp606
sV60593849
p607
(F41.815207909316264
F-87.64125913607052
tp608
sV96057957
p609
(F28.586995773997046
F77.23727266563431
tp610
sV84135711
p611
(F40.68249373797048
F-73.8798188612202
tp612
sV73552161
p613
(F41.835787445854386
F-87.63119150666057
tp614
sV78450660
p615
(F48.913870572255206
F2.408988263322794
tp616
sV10327050
p617
(F28.63474545457874
F77.14581375978271
tp618
sV55587761
p619
(F41.91169347641691
F-87.66780874740326
tp620
sV72364468
p621
(F28.611020372185987
F77.12777935391797
tp622
sV21587740
p623
(F41.82223117377791
F-87.68447583673803
tp624
sV55381291
p625
(F39.97908529085503
F116.39257116184125
tp626
sV56753226
p627
(F39.97844292331099
F116.40424666096503
tp628
sV87006759
p629
(F39.93458468475782
F116.37538733215773
tp630
sV00427111
p631
(F28.539513190641248
F77.15206717871042
tp632
sV19845494
p633
(F39.94036009431329
F116.39068350944898
tp634
sV45330674
p635
(F40.681497775641006
F-74.02257269689999
tp636
sV96681169
p637
(F40.78026138689047
F-73.94014007384105
tp638
sV74760398
p639
(F28.616111887986264
F77.2306552150252
tp640
sV53880505
p641
(F39.85985927144973
F116.3793184637503
tp642
sV71188645
p643
(F28.629629960068208
F77.14409249459399
tp644
sV37336882
p645
(F40.700804192059195
F-74.03698613684416
tp646
sV87318883
p647
(F39.828513903044204
F116.45185802568525
tp648
sV29762569
p649
(F28.63046969353206
F77.13964901164422
tp650
sV81862610
p651
(F39.881069394402225
F116.33458678577098
tp652
sV03182949
p653
(F41.939872761384756
F-87.60673451899295
tp654
sV26127941
p655
(F40.74051593829097
F-74.00224794646564
tp656
sV44062149
p657
(F39.96588878379121
F116.40704648070131
tp658
sV43884124
p659
(F40.648804706741004
F-74.01492696229239
tp660
sV09657090
p661
(F41.940786514406675
F-87.60973292517174
tp662
sV04226321
p663
(F48.80146924302779
F2.329420825320565
tp664
sV49198515
p665
(F39.90930884325966
F116.3997482483372
tp666
sV80362814
p667
(F39.90697485770055
F116.38869975848154
tp668
sV94191851
p669
(F40.769798925077325
F-74.02065842755381
tp670
sV69940743
p671
(F40.835525284175
F-73.92015087711178
tp672
sV45507823
p673
(F28.631994934434292
F77.26542995240503
tp674
sV68141097
p675
(F48.86869598124551
F2.3735738415184056
tp676
sV77237248
p677
(F28.657326405223312
F77.15034579088282
tp678
sV96732168
p679
(F40.774469524764015
F-74.02460177023111
tp680
sV97661665
p681
(F41.92270413836408
F-87.5840731214953
tp682
sV32416657
p683
(F28.67550392237013
F77.22714973619364
tp684
sV12160471
p685
(F39.92945311380935
F116.43774642844679
tp686
sV45756733
p687
(F40.61134197648898
F-73.91858353912407
tp688
sV57010311
p689
(F40.70088558860054
F-73.94354270889015
tp690
sV62232470
p691
(F48.88055651299871
F2.3076966272188444
tp692
sV40773308
p693
(F41.88917097742302
F-87.58951271322715
tp694
sV56580464
p695
(F40.7171863713551
F-73.86161565030068
tp696
sV15912893
p697
(F41.85124232753041
F-87.56975860705771
tp698
sV20938451
p699
(F40.738095947484126
F-73.88960658175417
tp700
sV21324994
p701
(F39.92054488441362
F116.43951184123567
tp702
sV04541561
p703
(F40.680985202113554
F-73.97104584922252
tp704
sV99896454
p705
(F41.841919608049146
F-87.70392155677206
tp706
sV47951969
p707
(F48.88319728564453
F2.4242937390115853
tp708
sV86163897
p709
(F40.78932310890524
F-74.04899363427447
tp710
sV81658237
p711
(F28.6887594203789
F77.23745445067654
tp712
sV30605008
p713
(F40.83210601977713
F-74.03307077200384
tp714
sV17949958
p715
(F39.82968815832551
F116.47373970282072
tp716
sV00239011
p717
(F41.85793462031333
F-87.64184593037648
tp718
sV01036411
p719
(F48.80487140262922
F2.2952746844219494
tp720
sV19572000
p721
(F28.547263049684744
F77.24091874554584
tp722
sV58254943
p723
(F28.538991465339212
F77.26626107362148
tp724
sV83395314
p725
(F39.90013182236702
F116.3982216051128
tp726
sV21656798
p727
(F40.757033709398094
F-73.9378191666767
tp728
sV07637858
p729
(F48.89294158730141
F2.374418641730718
tp730
sV13423421
p731
(F39.84911630287837
F116.47450693990498
tp732
sV19045191
p733
(F39.951393011060496
F116.39588800598477
tp734
sV49550795
p735
(F39.94247830612457
F116.39323454376347
tp736
sV31474214
p737
(F40.700642189165336
F-74.04245052856581
tp738
sV90667084
p739
(F40.745290615879966
F-73.89292008764448
tp740
sV34767153
p741
(F40.62313319729332
F-73.94523068197886
tp742
sV61191402
p743
(F28.614952264935965
F77.2296952972121
tp744
sV71131160
p745
(F28.545180208639817
F77.1679097019973
tp746
sV50756711
p747
(F40.68381796665921
F-73.96835226668084
tp748
sV07017377
p749
(F40.59463833371675
F-74.0157608825336
tp750
sV13373443
p751
(F39.930616202611716
F116.44781662664006
tp752
sV62835459
p753
(F40.77018036570174
F-73.96890951516802
tp754
sV42731719
p755
(F40.75917803604417
F-74.01995388475444
tp756
sV40962078
p757
(F39.91938041024429
F116.34360083283327
tp758
sV83420542
p759
(F39.92068226625931
F116.45226760917542
tp760
sV00060516
p761
(F39.86381926784429
F116.32668855504197
tp762
sV29990795
p763
(F48.84436828392608
F2.4055378417203426
tp764
sV60812124
p765
(F40.78441684538996
F-73.90047095061632
tp766
sV81453412
p767
(F40.716441569309204
F-73.96965662475398
tp768
sV15706720
p769
(F39.95633371418342
F116.39293428763293
tp770
sV62336567
p771
(F48.78818207072098
F2.3930983469620477
tp772
sV94333299
p773
(F48.84254959029283
F2.3447755406795903
tp774
sV32173543
p775
(F40.72982043098753
F-73.92246796392183
tp776
sV14620263
p777
(F48.91524873892773
F2.4259186341779535
tp778
sV57563473
p779
(F39.969656580826076
F116.32420693413704
tp780
sV85295889
p781
(F40.71235951260861
F-74.00750406005635
tp782
sV50137152
p783
(F48.87445458790897
F2.415117079134852
tp784
sV33886190
p785
(F28.581057878781856
F77.24461335675902
tp786
sV89185452
p787
(F40.78394247278047
F-74.0423000770882
tp788
sV48715317
p789
(F40.61058739375796
F-73.93096778847168
tp790
sV57868875
p791
(F28.556594687533973
F77.22470916878802
tp792
sV33003108
p793
(F39.824870303491764
F116.39859271015179
tp794
sV86948876
p795
(F40.794826408139826
F-73.97488418771366
tp796
sV98333097
p797
(F41.82355947418748
F-87.57539734660868
tp798
sV71844671
p799
(F39.872917088055125
F116.46106268139934
tp800
sV73945635
p801
(F40.770235205478755
F-73.97393969344319
tp802
sV35661856
p803
(F40.74936477933775
F-73.95988366044024
tp804
sV99742379
p805
(F48.85797957235125
F2.3434164911775266
tp806
sV00472081
p807
(F41.89143993961261
F-87.70916689258314
tp808
sV35466772
p809
(F41.87980093989359
F-87.69697727530848
tp810
sV38866487
p811
(F40.72673203038585
F-73.87726958922859
tp812
sV92718975
p813
(F40.8194765726624
F-74.04644704674641
tp814
sV42941729
p815
(F39.82078098557596
F116.38330368960524
tp816
sV39141170
p817
(F39.86035241473823
F116.40545554405871
tp818
sV06015060
p819
(F40.642724817354534
F-73.89735468752221
tp820
sV65294543
p821
(F39.85916965459232
F116.42167122310988
tp822
sV14864780
p823
(F48.89298584305248
F2.3724069056959776
tp824
sV64906959
p825
(F39.96536697169195
F116.45968400720875
tp826
sV99837280
p827
(F40.7394399793978
F-73.90702018384768
tp828
sV03129289
p829
(F40.716009276730894
F-73.91483132862037
tp830
sV88666631
p831
(F28.577130237189493
F77.17086937983116
tp832
sV60004963
p833
(F28.56345144615715
F77.12442742731484
tp834
sV15316257
p835
(F40.73780036669825
F-73.9067233167909
tp836
sV72500019
p837
(F28.651094407036894
F77.2622749487854
tp838
sV82362416
p839
(F40.68969476098417
F-73.89889234403262
tp840
sV64927039
p841
(F40.80990146587537
F-73.94640066178134
tp842
sV93118200
p843
(F40.77970515783213
F-73.96853224869359
tp844
sV15726773
p845
(F39.939174571033845
F116.41919013829249
tp846
sV46261441
p847
(F39.88108313226987
F116.391753269125
tp848
sV94346534
p849
(F28.621886594913725
F77.12605167279796
tp850
sV34762752
p851
(F40.711097608937465
F-73.9068148668238
tp852
sV28572244
p853
(F41.89328803188074
F-87.63258314156914
tp854
sV26520261
p855
(F28.643123318796984
F77.15957965555374
tp856
sV18905380
p857
(F40.76652740503258
F-73.90594472542013
tp858
sV97659563
p859
(F41.88078702371323
F-87.7023825788118
tp860
sV37772505
p861
(F39.86625832652947
F116.46445301182675
tp862
sV31375924
p863
(F48.84647109793061
F2.275405382352865
tp864
sV01924398
p865
(F28.682818890589463
F77.26878025281287
tp866
sV34966792
p867
(F40.633258225439334
F-73.87789947430842
tp868
sV61987685
p869
(F40.79177894876838
F-73.93599224127453
tp870
sV71224718
p871
(F41.891224987926975
F-87.65105124025787
tp872
sV25067132
p873
(F28.626296324561416
F77.19005225377109
tp874
sV74902538
p875
(F28.646401675208857
F77.18698559731914
tp876
sV61747456
p877
(F40.71404131788889
F-73.93468615755869
tp878
sV57708690
p879
(F41.94201438599681
F-87.68663733477855
tp880
sV49454642
p881
(F40.5986367800068
F-73.99365892808649
tp882
sV59794806
p883
(F40.69877930247006
F-73.96768072586848
tp884
sV49122466
p885
(F40.80727694371973
F-73.94907242838315
tp886
sV38603136
p887
(F48.91328466266007
F2.3248135131878547
tp888
sV91931184
p889
(F39.969907124492586
F116.33747409406463
tp890
sV66012511
p891
(F41.82494362390351
F-87.61040420042096
tp892
sV64752815
p893
(F40.72666204330052
F-73.99497900365644
tp894
sV25722628
p895
(F41.87008798491914
F-87.68254645091454
tp896
sV50597413
p897
(F40.790789865521035
F-73.99800519472188
tp898
sV03771792
p899
(F40.64021946499589
F-73.98935581194793
tp900
sV16370593
p901
(F28.679482205795196
F77.19693415563988
tp902
sV05591442
p903
(F40.64330448011699
F-73.95351721880061
tp904
sV76985355
p905
(F41.94186236807492
F-87.71668238707065
tp906
sV71632926
p907
(F41.85344507838541
F-87.69910684945734
tp908
sV92431478
p909
(F39.88215982741522
F116.35560751977954
tp910
sV79819510
p911
(F39.90093577537716
F116.33676824113716
tp912
sV10633892
p913
(F40.72561138943122
F-73.8908058055069
tp914
sV16859340
p915
(F48.91895414770872
F2.3114886976936084
tp916
sV37903312
p917
(F48.78556973244289
F2.3041851744317903
tp918
sV53642394
p919
(F48.8276454695807
F2.406925598938967
tp920
sV43307593
p921
(F40.81952456985998
F-74.00768411999582
tp922
sV58699317
p923
(F48.86484079061838
F2.371504472227842
tp924
sV66750932
p925
(F28.612404686059016
F77.17267332028084
tp926
sV70074093
p927
(F28.587125838386246
F77.26235989522276
tp928
sV96382233
p929
(F40.80776935055293
F-73.96279522276916
tp930
sV11205296
p931
(F48.900187786491
F2.277747119767916
tp932
sV87948257
p933
(F41.80766561862831
F-87.56239955988543
tp934
sV53559838
p935
(F40.598764474815646
F-73.98870599317496
tp936
sV12865574
p937
(F39.96967394414024
F116.42061096972715
tp938
sV71117676
p939
(F39.83829767041763
F116.38577559890473
tp940
sV17264099
p941
(F28.60847650482929
F77.20031752442561
tp942
sV21775437
p943
(F40.68475550652928
F-73.97522918658444
tp944
sV47048140
p945
(F40.72217247971838
F-73.96315021889356
tp946
sV74429288
p947
(F28.673938922235397
F77.2022515916603
tp948
sV37839918
p949
(F39.95582120195751
F116.34462705305401
tp950
sV31950794
p951
(F39.89308520537554
F116.39848571533594
tp952
sV94257281
p953
(F41.91448544571842
F-87.57167243037786
tp954
sV68733148
p955
(F40.64840501642753
F-73.86272928081517
tp956
sV65851555
p957
(F28.58336491977262
F77.22676328023606
tp958
sV01755046
p959
(F28.67085440023772
F77.2695103240788
tp960
sV00241465
p961
(F28.65243467784156
F77.15937245122561
tp962
sV48644921
p963
(F40.59293115267817
F-73.89223390380221
tp964
sV36505937
p965
(F40.686421788434195
F-74.02615133806384
tp966
sV12226108
p967
(F41.86357150566037
F-87.65602037159229
tp968
sV72355701
p969
(F40.74162608099124
F-73.97773689121671
tp970
sV28338147
p971
(F41.84651481538616
F-87.60795737354215
tp972
sV38231568
p973
(F40.71772828940902
F-73.97671272153961
tp974
sV00657808
p975
(F40.734700153304885
F-73.96952288491349
tp976
sV07665844
p977
(F39.96052570865125
F116.322418403826
tp978
sV16982772
p979
(F39.88438152782419
F116.42220185819116
tp980
sV41313886
p981
(F28.626114670226606
F77.25425232073633
tp982
sV44119379
p983
(F48.78861620033744
F2.3220076754434995
tp984
sV88211725
p985
(F40.67086716170338
F-73.8715983139703
tp986
sV71684055
p987
(F39.88229406892101
F116.33390517380207
tp988
sV45916236
p989
(F28.612831596696356
F77.26306577214939
tp990
sV14465512
p991
(F40.59897094819456
F-73.97568826723857
tp992
sV25905984
p993
(F28.553614912764356
F77.18890600239666
tp994
sV18318197
p995
(F39.87808363337653
F116.32154917682698
tp996
sV47244733
p997
(F41.80996575260517
F-87.58604950391386
tp998
sV98125906
p999
(F40.74301748197861
F-73.8797122722408
tp1000
sV21874628
p1001
(F41.814461876197434
F-87.63144114504158
tp1002
sV51218003
p1003
(F28.638294684387876
F77.25638337358615
tp1004
sV03880456
p1005
(F28.684213419953412
F77.23911866339255
tp1006
sV56772180
p1007
(F28.6637223274775
F77.17672663446831
tp1008
sV46340405
p1009
(F40.81334865991887
F-73.93393358668268
tp1010
sV02662305
p1011
(F39.95203237131113
F116.36344307450015
tp1012
sV72836736
p1013
(F28.553112196392313
F77.24677227844367
tp1014
sV92328471
p1015
(F40.601490035349954
F-73.95922751616348
tp1016
sV37789404
p1017
(F28.677485587499735
F77.12179929707331
tp1018
sV31069540
p1019
(F28.672780334878265
F77.178034241602
tp1020
sV09612884
p1021
(F48.78160307239813
F2.420038882834098
tp1022
sV05847990
p1023
(F41.80610172900188
F-87.66559981514341
tp1024
sV26394732
p1025
(F40.760883483730865
F-73.99448037085476
tp1026
sV33163413
p1027
(F41.88587722451521
F-87.5823770046204
tp1028
sV96061855
p1029
(F28.54533879822169
F77.25623528394709
tp1030
sV61785250
p1031
(F39.943845489611235
F116.34173144001748
tp1032
sV02052946
p1033
(F28.687560143830474
F77.27242913747855
tp1034
sV85387904
p1035
(F40.712046438060185
F-73.89557378810827
tp1036
sV82697051
p1037
(F48.79183404582982
F2.3747862673724947
tp1038
sV83388828
p1039
(F39.851167286265515
F116.32712488652392
tp1040
sV52829451
p1041
(F48.909567459182
F2.3444189141711247
tp1042
sV18188714
p1043
(F48.838503917410776
F2.3298373535430206
tp1044
sV27276150
p1045
(F40.74790722272568
F-73.8981649077536
tp1046
sV37945640
p1047
(F40.81578337262659
F-74.00694419509804
tp1048
sV88347042
p1049
(F39.84926844491427
F116.3333068215759
tp1050
sV02239903
p1051
(F39.96404123796524
F116.46317213685562
tp1052
sV47571129
p1053
(F48.92095337698684
F2.287093767942108
tp1054
sV95190501
p1055
(F41.84615356554164
F-87.63302678402769
tp1056
sV02585444
p1057
(F28.679496355102746
F77.16489249730876
tp1058
sV74280681
p1059
(F28.555649374258817
F77.13156538540441
tp1060
sV89110416
p1061
(F28.675550726854713
F77.180610255495
tp1062
sV61469709
p1063
(F41.92019871009165
F-87.71225546974202
tp1064
sV79734349
p1065
(F39.8334728236445
F116.34720996796713
tp1066
sV49678925
p1067
(F48.867436272495034
F2.278319054670305
tp1068
sV77278852
p1069
(F40.687931225745515
F-74.03544385886062
tp1070
sV95485447
p1071
(F40.73842931976236
F-73.90929202715665
tp1072
sV77339775
p1073
(F40.795171729402064
F-73.95210123171022
tp1074
sV97775003
p1075
(F39.83654678603582
F116.35759461748265
tp1076
sV73441687
p1077
(F40.733916630571315
F-74.01519597499198
tp1078
sV77502872
p1079
(F40.76024056608572
F-73.89827174462049
tp1080
sV28910114
p1081
(F28.558556243740338
F77.14507484356533
tp1082
sV28353768
p1083
(F41.922983215338384
F-87.67384371505095
tp1084
sV30461987
p1085
(F40.707879361613315
F-73.96045441011748
tp1086
sV03272787
p1087
(F28.663060772388935
F77.18812464964941
tp1088
sV23354517
p1089
(F39.93187800537282
F116.34658996866064
tp1090
sV04498131
p1091
(F40.6783950509247
F-73.93345291733554
tp1092
sV60241214
p1093
(F40.70322926541343
F-73.94782888980546
tp1094
sV20320898
p1095
(F40.83914874409383
F-73.9226085677189
tp1096
sV02344195
p1097
(F40.81407446776938
F-73.9327570270635
tp1098
sV24774024
p1099
(F28.56074441123718
F77.27476741878519
tp1100
sV34584347
p1101
(F48.83119044081476
F2.3095434549885834
tp1102
sV49417371
p1103
(F41.95055158192132
F-87.629382095326
tp1104
sV08236562
p1105
(F39.948137236481834
F116.34544365170264
tp1106
sV22281838
p1107
(F28.67115610117703
F77.17876081747009
tp1108
sV52660313
p1109
(F28.587778442824995
F77.14439374218348
tp1110
sV82034528
p1111
(F48.85000603704137
F2.319816046535195
tp1112
sV85550674
p1113
(F28.627136231804847
F77.27447605036187
tp1114
sV56832631
p1115
(F40.68008674397804
F-73.91712323161973
tp1116
sV93617642
p1117
(F28.68132785457321
F77.13997009926233
tp1118
sV63485905
p1119
(F40.59994599087007
F-74.00386194566049
tp1120
sV94217971
p1121
(F40.72879530539651
F-73.90775596990927
tp1122
sV54518155
p1123
(F28.54930955476337
F77.13010273008874
tp1124
sV42106920
p1125
(F28.597359376106066
F77.26196190513788
tp1126
sV21478819
p1127
(F28.652936397468476
F77.26279464888293
tp1128
sV18234312
p1129
(F40.606880498571286
F-73.97134485907749
tp1130
sV56083538
p1131
(F28.603684790779788
F77.24096186802498
tp1132
sV98255733
p1133
(F41.93044500141285
F-87.59796940730176
tp1134
sV72575956
p1135
(F40.80801220942605
F-74.01790486313543
tp1136
sV50264476
p1137
(F48.87755909689334
F2.2742020192121726
tp1138
sV15177278
p1139
(F41.93415496118618
F-87.63124115104169
tp1140
sV13209513
p1141
(F40.72207522791902
F-73.9151053639584
tp1142
sV36911431
p1143
(F28.669837453061085
F77.2799906909816
tp1144
sV57587233
p1145
(F40.74043030153357
F-74.01144513525693
tp1146
sV44622947
p1147
(F40.65146739004512
F-73.87882193467793
tp1148
sV99711375
p1149
(F48.82517702980448
F2.302137070400724
tp1150
sV07959349
p1151
(F40.73921373859355
F-73.89045787866648
tp1152
sV63897128
p1153
(F39.946366220747855
F116.45115523601255
tp1154
sV05996315
p1155
(F40.62032818937966
F-73.94191613089357
tp1156
sV22647320
p1157
(F28.594330878138884
F77.17448999544547
tp1158
sV26395524
p1159
(F40.696779044057436
F-73.96631795429366
tp1160
sV62813747
p1161
(F39.8571267466317
F116.4163947566058
tp1162
sV91585738
p1163
(F48.78778565694123
F2.420831260022339
tp1164
sV77935854
p1165
(F28.644464982393192
F77.1623824795262
tp1166
sV15647368
p1167
(F40.78062548952887
F-73.96706488707476
tp1168
sV43712892
p1169
(F48.83746129448385
F2.350932965940833
tp1170
sV90719509
p1171
(F48.872414261461515
F2.338260507652286
tp1172
sV80689638
p1173
(F39.83587698504075
F116.35541991688284
tp1174
sV41893043
p1175
(F48.847906267999505
F2.287953956718193
tp1176
sV71316789
p1177
(F48.88739284797234
F2.300535814167196
tp1178
sV29672370
p1179
(F28.668161970042064
F77.27925888242515
tp1180
sV96784174
p1181
(F40.59271550810013
F-73.95849345475172
tp1182
sV51881245
p1183
(F39.83032349577397
F116.36694839926588
tp1184
sV90149153
p1185
(F41.915482825139534
F-87.70384532496976
tp1186
sV15540690
p1187
(F48.89970276211147
F2.354345457998094
tp1188
sV29889723
p1189
(F28.566940685847722
F77.27357273386015
tp1190
sV86567954
p1191
(F39.89207959267755
F116.46603660737779
tp1192
sV88920689
p1193
(F40.80889841390477
F-73.94490328414687
tp1194
sV16116146
p1195
(F40.74150484249356
F-73.977737846538
tp1196
sV50898497
p1197
(F39.962795508351746
F116.45349465571103
tp1198
sV34603093
p1199
(F41.93906574267149
F-87.57148294354876
tp1200
sV28248286
p1201
(F40.60557936840049
F-73.9178123200806
tp1202
sV22779076
p1203
(F41.90516697041342
F-87.56868937012217
tp1204
sV12562077
p1205
(F40.794312389908235
F-74.00869618535116
tp1206
sV60633835
p1207
(F40.74713571785042
F-73.92153324613942
tp1208
sV44539290
p1209
(F40.71104540375209
F-73.92417566162679
tp1210
sV98785339
p1211
(F40.70991865570077
F-73.95912474086374
tp1212
sV45987571
p1213
(F39.95798116142074
F116.44492211672197
tp1214
sV04168768
p1215
(F28.643320579911034
F77.20703182885809
tp1216
sV06834814
p1217
(F48.86170226049839
F2.4149686710281655
tp1218
sV71112886
p1219
(F39.890795012037586
F116.35831156595187
tp1220
sV97173144
p1221
(F41.836483862958225
F-87.68303496448782
tp1222
sV28592143
p1223
(F40.78273417493866
F-73.92370585800285
tp1224
sV13156244
p1225
(F39.95709161415373
F116.46052481312714
tp1226
sV09906075
p1227
(F41.94891782908605
F-87.61699307958574
tp1228
sV00530712
p1229
(F48.90065235744536
F2.3185912186376334
tp1230
sV14336584
p1231
(F48.926733003036574
F2.350528909027233
tp1232
sV71276229
p1233
(F28.54881617112413
F77.14818094577183
tp1234
sV10539859
p1235
(F28.60901785864651
F77.16555444017224
tp1236
sV37775124
p1237
(F40.738556907523986
F-74.0235544648175
tp1238
sV35471493
p1239
(F40.73058909730648
F-73.87410868579326
tp1240
sV36503933
p1241
(F40.79631303546962
F-73.89328181723663
tp1242
sV99505714
p1243
(F48.83593350437256
F2.299934586707897
tp1244
sV89757925
p1245
(F40.71590095388511
F-73.96229880462325
tp1246
sV96972496
p1247
(F40.7100846086161
F-74.01415094945992
tp1248
sV82883737
p1249
(F39.89228696145096
F116.38598971042424
tp1250
sV28044796
p1251
(F41.9241144753376
F-87.59396861349252
tp1252
sV88475271
p1253
(F39.95370836760305
F116.3555429034849
tp1254
sV40978345
p1255
(F39.85967276724558
F116.36844543296458
tp1256
sV22050717
p1257
(F40.70085750108308
F-73.93854221906156
tp1258
sV38613500
p1259
(F40.68075914960264
F-73.92872397378109
tp1260
sV10997871
p1261
(F41.94854592292714
F-87.59251153168888
tp1262
sV74813797
p1263
(F40.698609078316
F-73.96761282320601
tp1264
sV60137401
p1265
(F41.85208108542558
F-87.60983088973175
tp1266
sV26918853
p1267
(F40.70310399868053
F-73.93293509944408
tp1268
sV86472975
p1269
(F41.899395394503784
F-87.60074647035526
tp1270
sV92862807
p1271
(F39.88003153767475
F116.3620836952747
tp1272
sV97228141
p1273
(F39.939659319493536
F116.44766346648142
tp1274
sV42924821
p1275
(F28.531206668434084
F77.25098529943165
tp1276
sV57688053
p1277
(F48.83413946995968
F2.3160784744453697
tp1278
sV56322958
p1279
(F40.591988605807344
F-73.88503416736445
tp1280
sV03669631
p1281
(F41.94867780503427
F-87.59305439403606
tp1282
sV43326419
p1283
(F28.634967944545053
F77.12101943204225
tp1284
sV59768845
p1285
(F48.90639978187091
F2.4064792748871553
tp1286
sV48590761
p1287
(F40.68407098534825
F-73.95400030219052
tp1288
sV41926536
p1289
(F28.639091108501393
F77.2036622438057
tp1290
sV84214843
p1291
(F28.667334678469135
F77.26447605124888
tp1292
sV36271184
p1293
(F48.92922373844897
F2.347880964283416
tp1294
sV68358723
p1295
(F28.60534138805415
F77.18834861851153
tp1296
sV20851958
p1297
(F39.9571741735127
F116.3632801196167
tp1298
sV11298045
p1299
(F41.82841861781066
F-87.65295852492524
tp1300
sV23217621
p1301
(F48.903549523299596
F2.3362398930270194
tp1302
sV32043860
p1303
(F41.903824654984284
F-87.60414057655312
tp1304
sV42114130
p1305
(F40.702345484015154
F-73.97368408187305
tp1306
sV17578677
p1307
(F28.56932248836012
F77.16599662210142
tp1308
sV08344045
p1309
(F40.73951580299733
F-73.970041209464
tp1310
sV45025938
p1311
(F40.69435454688627
F-73.94642248597762
tp1312
sV38832888
p1313
(F41.82759050334378
F-87.63847164639147
tp1314
sV69887567
p1315
(F39.89024342696099
F116.42516104525508
tp1316
sV36179091
p1317
(F39.93356404659365
F116.32767612777349
tp1318
sV81106875
p1319
(F41.8856750518044
F-87.66845209171859
tp1320
sV87825541
p1321
(F48.82009987366485
F2.408492524910999
tp1322
sV93866132
p1323
(F40.769020935582354
F-73.90330897658225
tp1324
sV89658482
p1325
(F28.68595823569715
F77.22252227438122
tp1326
sV23221284
p1327
(F39.89228788337216
F116.43923919144466
tp1328
sV06356507
p1329
(F40.77777421493958
F-74.01134597634604
tp1330
sV99926472
p1331
(F40.606563095155
F-73.90722794484046
tp1332
sV67561421
p1333
(F40.761350346577345
F-74.01872149679683
tp1334
sV26584157
p1335
(F28.579421908777135
F77.18175408839356
tp1336
sV99652661
p1337
(F40.771514823631364
F-74.02329514515907
tp1338
sV38931239
p1339
(F39.89183262578898
F116.3665774343841
tp1340
sV70144048
p1341
(F41.92974639667298
F-87.71213460459721
tp1342
sV91834522
p1343
(F40.590096004632784
F-73.91497253504838
tp1344
sV92819535
p1345
(F41.88109755812638
F-87.65551955821384
tp1346
sV31160551
p1347
(F40.80564316708622
F-73.93858405979849
tp1348
sV24179355
p1349
(F40.72898366289567
F-73.91693733213282
tp1350
sV76904820
p1351
(F40.742408729800815
F-73.99840538189613
tp1352
sV68200060
p1353
(F40.67685778941654
F-73.8868192346538
tp1354
sV44804299
p1355
(F28.590226175716904
F77.13207498773868
tp1356
sV84220516
p1357
(F40.79957400776108
F-73.94870240049208
tp1358
sV03068151
p1359
(F41.8626193401897
F-87.56683453458085
tp1360
sV26582566
p1361
(F48.85497289823826
F2.3804162816573737
tp1362
sV51801915
p1363
(F48.86932195840171
F2.402257737892476
tp1364
sV81825646
p1365
(F40.71315923410577
F-73.90652016402687
tp1366
sV33531809
p1367
(F28.679738359285775
F77.17248443708586
tp1368
sV55921787
p1369
(F41.80197011207536
F-87.57656837622308
tp1370
sV36644322
p1371
(F28.55443739354576
F77.17243790552544
tp1372
sV30961456
p1373
(F40.625666040129374
F-73.92437694896894
tp1374
sV64802909
p1375
(F48.89779748805785
F2.3768575809187134
tp1376
sV77956552
p1377
(F28.572568461652377
F77.24467836592639
tp1378
sV28199298
p1379
(F40.70432666174995
F-74.02246239698164
tp1380
sV07115561
p1381
(F39.8271837210556
F116.45195860909304
tp1382
sV71123882
p1383
(F41.892240795716134
F-87.56787591864612
tp1384
sV83469008
p1385
(F39.82577256829067
F116.45192458343833
tp1386
sV52235375
p1387
(F48.88506845872446
F2.327434100005974
tp1388
sV98948338
p1389
(F48.81553775726588
F2.311594897328612
tp1390
sV69880339
p1391
(F48.876561034791166
F2.274097475281902
tp1392
sV37859282
p1393
(F40.62511575208164
F-73.97757477300875
tp1394
sV32666274
p1395
(F40.83955529087736
F-73.97901970861695
tp1396
sV95285429
p1397
(F40.72989542186752
F-74.01088626076343
tp1398
sV02610900
p1399
(F41.934336489534
F-87.59163577430199
tp1400
sV26237084
p1401
(F40.74349924381079
F-73.99287216546654
tp1402
sV44919597
p1403
(F40.715670292833416
F-73.94486000512012
tp1404
sV76941764
p1405
(F40.794360064019976
F-73.92343955188679
tp1406
sV70900675
p1407
(F41.814148504648315
F-87.6096934099423
tp1408
sV47057333
p1409
(F41.886498303843034
F-87.56633635837683
tp1410
sV38093043
p1411
(F48.819701200568744
F2.3084174593227047
tp1412
sV48534772
p1413
(F41.86630497629655
F-87.62755917427536
tp1414
sV77940889
p1415
(F39.96345840504746
F116.35103390940385
tp1416
sV08207074
p1417
(F40.70348003898846
F-73.94640122526198
tp1418
sV36056903
p1419
(F28.60488420029595
F77.138458022489
tp1420
sV57466767
p1421
(F41.8251901575907
F-87.5658432018275
tp1422
sV81551927
p1423
(F40.703016806631354
F-73.88702310950524
tp1424
sV23113985
p1425
(F40.698325572191514
F-73.97646283776352
tp1426
sV63323092
p1427
(F40.689157007033195
F-73.89870766543804
tp1428
sV83571893
p1429
(F41.83087304831015
F-87.64136745902486
tp1430
sV58726792
p1431
(F40.70254334467245
F-73.91732946658838
tp1432
sV04709992
p1433
(F28.556681948600957
F77.2658241373393
tp1434
sV22502254
p1435
(F40.71332274090557
F-73.98148251102525
tp1436
sV38332081
p1437
(F40.744953814677835
F-73.95124416387587
tp1438
sV76879944
p1439
(F40.8363680470546
F-73.96530266926348
tp1440
sV86723879
p1441
(F28.58806536183193
F77.15234906072163
tp1442
sV51350765
p1443
(F40.824366593190895
F-73.97078174423464
tp1444
sV31643726
p1445
(F48.84909523732325
F2.335618889175183
tp1446
sV67690534
p1447
(F41.80907795798392
F-87.59729945095016
tp1448
sV01670417
p1449
(F40.72422816035543
F-73.9219865739241
tp1450
sV53066589
p1451
(F48.79552367908584
F2.390343008701001
tp1452
sV37306229
p1453
(F39.93443215057914
F116.4369641324591
tp1454
sV99379049
p1455
(F41.86247356258949
F-87.61098525261994
tp1456
sV32085211
p1457
(F48.810471210455944
F2.40123684058457
tp1458
sV92246768
p1459
(F39.860293711301196
F116.43204526908781
tp1460
sV06030858
p1461
(F28.64828858679469
F77.16022708371666
tp1462
sV93723183
p1463
(F39.859444474676586
F116.4777666398918
tp1464
sV00655675
p1465
(F28.530953012324037
F77.13828662398772
tp1466
sV10642276
p1467
(F40.73721701487559
F-73.96216989472538
tp1468
sV61874565
p1469
(F48.834268330184834
F2.3163376851804274
tp1470
sV71384436
p1471
(F41.8209775210916
F-87.6027758876325
tp1472
sV67756957
p1473
(F39.912204198712274
F116.32156000991246
tp1474
sV26925073
p1475
(F28.611230068723778
F77.22127534538292
tp1476
sV36706365
p1477
(F41.858849875829904
F-87.69060753083699
tp1478
sV36409907
p1479
(F48.925463831352744
F2.377473523871345
tp1480
sV43907366
p1481
(F40.649920612394894
F-73.98041913520603
tp1482
sV57757377
p1483
(F40.67993745787072
F-73.97898814479547
tp1484
sV30310490
p1485
(F28.61165734381215
F77.15126326504377
tp1486
sV31910798
p1487
(F39.923403525453296
F116.42569116382866
tp1488
sV76215063
p1489
(F39.9137753614574
F116.45180282678346
tp1490
sV61450653
p1491
(F39.833430745406616
F116.40340642203049
tp1492
sV72405161
p1493
(F41.88306806636623
F-87.7031826590073
tp1494
sV83361616
p1495
(F48.804632248810485
F2.2841212663064026
tp1496
sV56549959
p1497
(F48.912152029197465
F2.4176328313288638
tp1498
sV68452599
p1499
(F39.91016716151803
F116.42152032419561
tp1500
sV38437670
p1501
(F41.92803883361721
F-87.70625843344625
tp1502
sV82952211
p1503
(F28.645834391669347
F77.1894244035136
tp1504
sV50812776
p1505
(F48.91068319456392
F2.3360532766570983
tp1506
sV08061386
p1507
(F39.92976149024843
F116.33226008240516
tp1508
sV80958673
p1509
(F39.95416211786324
F116.46677068354711
tp1510
sV04125877
p1511
(F41.91801201194158
F-87.57461548646275
tp1512
sV39291769
p1513
(F48.84390482794836
F2.406698747739171
tp1514
sV95333991
p1515
(F48.90401951556482
F2.3651249449472935
tp1516
sV16965362
p1517
(F28.650660845175874
F77.17263033113761
tp1518
sV03541814
p1519
(F40.71420446510969
F-73.9178852300521
tp1520
sV98628544
p1521
(F40.83947887325344
F-73.89640926449566
tp1522
sV88678757
p1523
(F28.537707901580212
F77.13425663242899
tp1524
sV57725949
p1525
(F28.63206985097532
F77.21613997941428
tp1526
sV80644781
p1527
(F40.79553506268877
F-73.98834016627694
tp1528
sV57378084
p1529
(F28.57036637046696
F77.19655033618098
tp1530
sV95016870
p1531
(F41.89410741333687
F-87.61409372571909
tp1532
sV88317014
p1533
(F40.73489798296953
F-74.02538780122583
tp1534
sV72330302
p1535
(F41.95250536458714
F-87.63977269830814
tp1536
sV52972133
p1537
(F40.71187987079172
F-73.8761393862211
tp1538
sV74951376
p1539
(F48.797026661494435
F2.343072848126637
tp1540
sV88817378
p1541
(F28.5969403510812
F77.23219905944069
tp1542
sV39962676
p1543
(F41.80488649957771
F-87.60888813574725
tp1544
sV48893893
p1545
(F40.78157821375599
F-74.02745348874356
tp1546
sV02437965
p1547
(F48.9138951605052
F2.348839405280133
tp1548
sV93688840
p1549
(F40.79807609309338
F-74.03093035190841
tp1550
sV51256753
p1551
(F41.94428082505355
F-87.64768083159494
tp1552
sV94641226
p1553
(F41.847502819019866
F-87.60052224138093
tp1554
sV36196173
p1555
(F48.81456356512845
F2.293122934388406
tp1556
sV99981853
p1557
(F41.86349347018321
F-87.71805980117286
tp1558
sV33591681
p1559
(F48.87710429451064
F2.401595971721988
tp1560
sV37917630
p1561
(F40.688663494263075
F-74.02461253169636
tp1562
sV09488076
p1563
(F39.849351278469214
F116.40668773428632
tp1564
sV94819823
p1565
(F40.651763445629676
F-73.98873572575637
tp1566
sV22592316
p1567
(F48.82878322160472
F2.3702042091840307
tp1568
sV40147222
p1569
(F41.8550316286819
F-87.56344364767091
tp1570
sV76907067
p1571
(F28.531196454654097
F77.18707395564101
tp1572
sV08437297
p1573
(F39.89251173067699
F116.38215033038014
tp1574
sV04213635
p1575
(F40.74803898205757
F-73.99061265889094
tp1576
sV84135681
p1577
(F28.53568538815181
F77.27505648704523
tp1578
sV15565525
p1579
(F28.581239141999628
F77.2462347494712
tp1580
sV08712059
p1581
(F41.917461513251794
F-87.67630469012208
tp1582
sV77727718
p1583
(F28.624091679047858
F77.21494298478974
tp1584
sV99241308
p1585
(F40.6915697262467
F-74.02564269819118
tp1586
sV61524637
p1587
(F48.88477737378901
F2.399972580339739
tp1588
sV41540237
p1589
(F39.968787249265624
F116.35876339738576
tp1590
sV41761816
p1591
(F40.650054106499255
F-73.95574414030435
tp1592
sV07247590
p1593
(F48.8297734117752
F2.335679654043937
tp1594
sV56470680
p1595
(F28.5563634212678
F77.23667403840405
tp1596
sV30299849
p1597
(F40.834258225058136
F-73.93425131097416
tp1598
sV70468403
p1599
(F40.688514382341175
F-73.88683431394446
tp1600
sV06091767
p1601
(F40.62265153187033
F-73.92287830337119
tp1602
sV29056927
p1603
(F48.88825813500372
F2.3399302612707884
tp1604
sV50260782
p1605
(F28.601755649779992
F77.23029144364047
tp1606
sV49970005
p1607
(F40.649550389043526
F-73.90107980693264
tp1608
sV31682800
p1609
(F39.96729493378181
F116.38785200954378
tp1610
sV29198818
p1611
(F48.86116136535478
F2.3304316742203603
tp1612
sV35077633
p1613
(F40.765480087574815
F-73.89306290755714
tp1614
sV37076634
p1615
(F40.81836376982443
F-73.94676261220951
tp1616
sV38580192
p1617
(F39.832015989336846
F116.42795413063823
tp1618
sV59227694
p1619
(F41.92388648277807
F-87.61165439810381
tp1620
sV70307245
p1621
(F28.64783475237265
F77.161150784758
tp1622
sV48653985
p1623
(F41.906081686417274
F-87.61640569560561
tp1624
sV16523449
p1625
(F40.74900620700887
F-73.93467772927188
tp1626
sV25980363
p1627
(F41.938242806386434
F-87.705999148704
tp1628
sV68528676
p1629
(F41.81580773428793
F-87.6626982231047
tp1630
sV29791231
p1631
(F28.59161286677241
F77.25398864331275
tp1632
sV77061041
p1633
(F41.885249599727096
F-87.68311033306125
tp1634
sV35878681
p1635
(F40.62055372520753
F-73.86614220526963
tp1636
sV32040548
p1637
(F48.799809982890224
F2.402534725602929
tp1638
sV89301890
p1639
(F40.68722971990789
F-74.01087961269192
tp1640
sV94443998
p1641
(F48.878093378271615
F2.4082229666845807
tp1642
sV10154991
p1643
(F40.60539179720094
F-73.9938314862098
tp1644
sV10705698
p1645
(F41.86639546132213
F-87.68399321292199
tp1646
sV75047887
p1647
(F41.94101862279954
F-87.67870415218238
tp1648
sV63628005
p1649
(F48.81731154742828
F2.2892132094128312
tp1650
sV36015993
p1651
(F40.76810274914065
F-73.9496383866991
tp1652
sV65185391
p1653
(F28.59364139932309
F77.15386823060801
tp1654
sV98703425
p1655
(F40.687898846297806
F-73.97839892902667
tp1656
sV44199371
p1657
(F48.85174625144883
F2.366344476327443
tp1658
sV96141687
p1659
(F48.89372859516299
F2.2979582525116737
tp1660
sV34899991
p1661
(F40.73671371947197
F-73.95401001132574
tp1662
sV43259809
p1663
(F41.84348716979785
F-87.60787416892326
tp1664
sV36138821
p1665
(F28.572882141181175
F77.24550543530768
tp1666
sV89338445
p1667
(F41.92236570857788
F-87.57208098837978
tp1668
sV96578841
p1669
(F40.725951776064115
F-73.96380292452051
tp1670
sV73899709
p1671
(F41.94367536279713
F-87.62264266587795
tp1672
sV07038952
p1673
(F41.950237073560515
F-87.65541041839597
tp1674
sV53278937
p1675
(F48.828803515013135
F2.2740912787656726
tp1676
sV02151670
p1677
(F39.832369652325625
F116.44111144182432
tp1678
sV69862182
p1679
(F40.744968975296054
F-73.96664557983756
tp1680
sV84279460
p1681
(F40.79623931573731
F-74.01271710948974
tp1682
sV85709553
p1683
(F28.666750386981352
F77.14454050842082
tp1684
sV20775469
p1685
(F40.59201146958019
F-74.01094014950822
tp1686
sV02931340
p1687
(F41.87779857570883
F-87.69913253194257
tp1688
sV50302024
p1689
(F40.74202215248354
F-73.93349369286871
tp1690
sV13694418
p1691
(F41.85361034285398
F-87.71348839429056
tp1692
sV63868227
p1693
(F40.71770234751507
F-73.91139459798771
tp1694
sV22049636
p1695
(F40.706409310362694
F-73.99193999707717
tp1696
sV79629959
p1697
(F41.906650235427506
F-87.63887006459431
tp1698
sV68929312
p1699
(F41.85271957489223
F-87.63765999110208
tp1700
sV55564571
p1701
(F39.82611607467886
F116.3247552506984
tp1702
sV02316475
p1703
(F40.74906568276464
F-73.99725829549398
tp1704
sV93510653
p1705
(F39.85292377568935
F116.32441696896402
tp1706
sV62903660
p1707
(F48.814251374682165
F2.2848194912365836
tp1708
sV75183615
p1709
(F48.858103293471636
F2.3886486884302536
tp1710
sV87708523
p1711
(F28.67707046699549
F77.21486055974403
tp1712
sV00592628
p1713
(F40.7526638451057
F-73.89117105226289
tp1714
sV83711060
p1715
(F39.84701437447689
F116.32997317584667
tp1716
sV32896503
p1717
(F39.82121160896734
F116.47845632448981
tp1718
sV32117752
p1719
(F40.75592974528583
F-74.03229237153722
tp1720
sV15166630
p1721
(F40.6122273608731
F-74.0085221583186
tp1722
sV19794273
p1723
(F40.61848714646474
F-73.89327365555214
tp1724
sV62916615
p1725
(F40.79550910290936
F-73.96793975829364
tp1726
sV73258704
p1727
(F41.90715708023878
F-87.6069110306119
tp1728
sV51152918
p1729
(F48.89431179049353
F2.3411745898283423
tp1730
sV37927080
p1731
(F28.614276371127538
F77.19181859981923
tp1732
sV63168952
p1733
(F40.80404575307014
F-73.99515977187349
tp1734
sV46590992
p1735
(F48.83532429729363
F2.344342181159998
tp1736
sV81526413
p1737
(F48.90936377473175
F2.3248956227121225
tp1738
sV45400254
p1739
(F41.87511267533366
F-87.56280717882787
tp1740
sV98198276
p1741
(F40.693055570861844
F-73.93601917459793
tp1742
sV39103901
p1743
(F28.67745091423638
F77.18025023556147
tp1744
sV45263408
p1745
(F48.81634289355675
F2.3050089176508632
tp1746
sV67930319
p1747
(F41.888914181371426
F-87.57060913594613
tp1748
sV88381152
p1749
(F41.886621110665835
F-87.5820707148755
tp1750
sV66198666
p1751
(F41.935198138709566
F-87.57533433332733
tp1752
sV02952963
p1753
(F41.855470284024854
F-87.63294596982595
tp1754
sV27389133
p1755
(F40.7233224403231
F-73.93751113939162
tp1756
sV32230444
p1757
(F48.92813765872564
F2.400374988406728
tp1758
sV06238230
p1759
(F40.7673388267661
F-73.89574035414073
tp1760
sV93377393
p1761
(F40.698772107210885
F-73.91070514132291
tp1762
sV19438849
p1763
(F40.78432734372165
F-74.03743583757212
tp1764
sV07872013
p1765
(F28.621133763117367
F77.2549163081663
tp1766
sV37018528
p1767
(F40.614229012053094
F-74.00917647471792
tp1768
sV36927166
p1769
(F40.677436604831314
F-74.01026650975767
tp1770
sV68371081
p1771
(F40.60227551783564
F-73.96914939215269
tp1772
sV43125838
p1773
(F40.780820882490744
F-74.00919370458101
tp1774
sV08408457
p1775
(F40.59305429507456
F-73.98833672676902
tp1776
sV23924437
p1777
(F28.684296431099128
F77.1617273085843
tp1778
sV72447451
p1779
(F28.55933736536029
F77.12559317662013
tp1780
sV67077182
p1781
(F41.81808458852419
F-87.71431155455564
tp1782
sV58226636
p1783
(F39.91030142105327
F116.41081860179283
tp1784
sV35163992
p1785
(F39.84221901092229
F116.41825196593938
tp1786
sV75604745
p1787
(F28.65918603148311
F77.26922182602388
tp1788
sV64584379
p1789
(F39.96587921761466
F116.34220813296038
tp1790
sV09461369
p1791
(F40.75638019903451
F-73.90319142862243
tp1792
sV73916901
p1793
(F40.726369317148595
F-73.95347780201844
tp1794
sV03571910
p1795
(F28.59547895082626
F77.27082810308417
tp1796
sV66974765
p1797
(F41.85645525003108
F-87.70661830593058
tp1798
sV69395062
p1799
(F28.568798108442977
F77.1959708410293
tp1800
sV87536102
p1801
(F41.88366893086407
F-87.71531048106749
tp1802
sV59053118
p1803
(F40.81711453931894
F-74.04612267726813
tp1804
sV31871297
p1805
(F48.91730379580896
F2.390156304081588
tp1806
sV92533837
p1807
(F28.63167973261052
F77.15527186085122
tp1808
sV98385027
p1809
(F28.53967537139158
F77.12754604283356
tp1810
sV53920195
p1811
(F41.811921521702565
F-87.56209355368695
tp1812
sV76779251
p1813
(F48.881237075495925
F2.3086829342137065
tp1814
sV63083484
p1815
(F41.90715125329242
F-87.66232161791532
tp1816
sV02754734
p1817
(F40.69525300815993
F-73.91397776545313
tp1818
sV19258577
p1819
(F40.739667944822784
F-73.94700983492854
tp1820
sV42456216
p1821
(F40.71611330355461
F-73.9235781932821
tp1822
sV48645188
p1823
(F40.66977212675212
F-73.91146617877001
tp1824
sV42211013
p1825
(F41.85742940850463
F-87.70699397522968
tp1826
sV72685730
p1827
(F28.645112280242166
F77.17034894318397
tp1828
sV54567405
p1829
(F40.65677492696512
F-73.98598571686647
tp1830
sV32183290
p1831
(F41.864038208105555
F-87.61165735577792
tp1832
sV81700035
p1833
(F40.59985637836019
F-73.88079785965236
tp1834
sV02351452
p1835
(F28.624638174861065
F77.14099026701655
tp1836
sV41625132
p1837
(F40.82829495509445
F-73.91899637811959
tp1838
sV99006969
p1839
(F28.570117437794156
F77.13028643160285
tp1840
sV72090350
p1841
(F28.570592121256194
F77.13148532306055
tp1842
sV41752722
p1843
(F40.713841195749545
F-73.92596850126753
tp1844
sV85939325
p1845
(F48.867259522925146
F2.3414488080037663
tp1846
sV65486290
p1847
(F39.845207494123926
F116.47853772942426
tp1848
sV03609743
p1849
(F41.84284347781724
F-87.59495969341796
tp1850
sV98335596
p1851
(F41.87960369132368
F-87.60428742231804
tp1852
sV85115491
p1853
(F40.68902364963894
F-74.0060960600478
tp1854
sV54054806
p1855
(F40.70699956456757
F-73.92779891242132
tp1856
sV18713145
p1857
(F28.65607202925674
F77.21569089037972
tp1858
sV86634533
p1859
(F40.685035769118635
F-73.96376513168538
tp1860
sV26997643
p1861
(F39.91495406949314
F116.37280758712647
tp1862
sV11196815
p1863
(F41.950169869872866
F-87.7000229942188
tp1864
sV52500336
p1865
(F41.89771954084145
F-87.69186604313656
tp1866
sV33607528
p1867
(F28.616336164671697
F77.12159346332945
tp1868
sV11734147
p1869
(F40.69961836356723
F-73.87526853655963
tp1870
sV70409925
p1871
(F48.85678932646966
F2.2718881701027684
tp1872
sV43573738
p1873
(F40.63281707271678
F-73.86195183053134
tp1874
sV21120374
p1875
(F40.730337038351344
F-73.96246712984119
tp1876
sV04011149
p1877
(F40.70249548527304
F-73.95587913721873
tp1878
sV14405020
p1879
(F28.54230024435817
F77.27841744151024
tp1880
sV84774729
p1881
(F48.78327469402646
F2.390926881576979
tp1882
sV18386707
p1883
(F48.902953358435944
F2.3634089379421694
tp1884
sV26784670
p1885
(F39.85843258080604
F116.4482883818429
tp1886
sV29356768
p1887
(F40.71440744654813
F-73.97657718545827
tp1888
sV70401691
p1889
(F40.71556958630753
F-73.95262349969525
tp1890
sV08326324
p1891
(F28.590052701730183
F77.15507248325568
tp1892
sV92411166
p1893
(F39.84064905863282
F116.4258108445901
tp1894
sV41924266
p1895
(F39.87560018125975
F116.36600387471802
tp1896
sV54448018
p1897
(F41.88648614987218
F-87.65303938048241
tp1898
sV23533264
p1899
(F40.746985634849935
F-73.99624675110282
tp1900
sV59609896
p1901
(F28.534686264575054
F77.20812355450268
tp1902
sV39777843
p1903
(F40.69230238989124
F-73.96739705279316
tp1904
sV26921785
p1905
(F48.855437749378446
F2.3864921739954523
tp1906
sV25675245
p1907
(F41.933095931189975
F-87.5948474080858
tp1908
sV95048437
p1909
(F39.85821880200684
F116.47703432970009
tp1910
sV10181706
p1911
(F41.833090511077785
F-87.67357287704456
tp1912
sV32826135
p1913
(F40.69995547750897
F-74.02533595830117
tp1914
sV19730448
p1915
(F41.90771177306192
F-87.6766794411981
tp1916
sV77090577
p1917
(F40.68739228865526
F-73.91174438253468
tp1918
sV31603386
p1919
(F40.714078588893706
F-73.971411252975
tp1920
sV44962265
p1921
(F41.90323886993666
F-87.71030490621592
tp1922
sV61516052
p1923
(F40.68834152211739
F-73.8929893702211
tp1924
sV23016132
p1925
(F48.77764914028589
F2.3412472584974706
tp1926
sV93776615
p1927
(F48.836529427928305
F2.323785921837067
tp1928
sV13736781
p1929
(F40.73406680286714
F-73.89047796057206
tp1930
sV35223504
p1931
(F41.926403326165094
F-87.62937169246777
tp1932
sV96966129
p1933
(F39.9647440930032
F116.43845884858497
tp1934
sV53543578
p1935
(F40.81617585889909
F-73.8941324691318
tp1936
sV53361189
p1937
(F40.80120661354078
F-73.93417636588971
tp1938
sV29612802
p1939
(F41.858418715547735
F-87.58969606351846
tp1940
sV07281044
p1941
(F41.83194027573739
F-87.67800683510943
tp1942
sV46478986
p1943
(F48.863767397974485
F2.316058335630331
tp1944
sV53832672
p1945
(F28.57712406944303
F77.24480384332188
tp1946
sV99152307
p1947
(F39.96911088168356
F116.42406892075928
tp1948
sV12258499
p1949
(F40.697185586121286
F-73.99533209908283
tp1950
sV60036636
p1951
(F48.89414241573276
F2.3236309398838073
tp1952
sV88293257
p1953
(F40.609235609132405
F-74.0127155769598
tp1954
sV77867049
p1955
(F39.94814420548049
F116.45518518682557
tp1956
sV22113696
p1957
(F41.859468322115006
F-87.61902508196337
tp1958
sV88629360
p1959
(F40.70185455710459
F-73.91741983979432
tp1960
sV19385150
p1961
(F39.843862458857814
F116.36734925148733
tp1962
sV40497037
p1963
(F39.94920519504381
F116.36937980045344
tp1964
sV47792012
p1965
(F40.68929080630961
F-73.95532766598483
tp1966
sV69423208
p1967
(F40.615948114937005
F-73.91967741282751
tp1968
sV07558160
p1969
(F40.59282996726508
F-73.89694100248984
tp1970
sV96324684
p1971
(F48.83624692682043
F2.295198918752323
tp1972
sV98220748
p1973
(F40.69833571183181
F-74.04101716010842
tp1974
sV30540958
p1975
(F40.74003673354959
F-74.01973396221027
tp1976
sV23259645
p1977
(F28.61916770035791
F77.26042835596249
tp1978
sV10789643
p1979
(F28.58471365443303
F77.2210807514675
tp1980
sV04065937
p1981
(F28.557068460657824
F77.12965585951905
tp1982
sV76390951
p1983
(F28.626712441263045
F77.2281758155848
tp1984
sV47324176
p1985
(F40.71714284032903
F-74.0026071830617
tp1986
sV27331569
p1987
(F28.60480166914377
F77.27187047739086
tp1988
sV29967629
p1989
(F39.89224365375887
F116.43205867068482
tp1990
sV51248772
p1991
(F40.72826281088034
F-73.93573317827145
tp1992
sV20740962
p1993
(F40.74441640467839
F-73.91973803899667
tp1994
sV33353982
p1995
(F40.790118423986826
F-73.95425749271259
tp1996
sV95237152
p1997
(F39.89186243094744
F116.47009777398355
tp1998
sV00830713
p1999
(F39.892120900162276
F116.44729048665978
tp2000
s.